(dp1
cnumpy.core.multiarray
scalar
p2
(cnumpy
dtype
p3
(S'S5'
I0
I1
tRp4
(I3
S'|'
NNNI5
I1
I0
tbS'saves'
tRp5
I4
sg2
(g3
(S'S4'
I0
I1
tRp6
(I3
S'|'
NNNI4
I1
I0
tbS'four'
tRp7
I6
sg2
(g3
(S'S5'
I0
I1
tRp8
(I3
S'|'
NNNI5
I1
I0
tbS'sleep'
tRp9
I7
sg2
(g3
(S'S7'
I0
I1
tRp10
(I3
S'|'
NNNI7
I1
I0
tbS'mansion'
tRp11
I9
sg2
(g3
(S'S13'
I0
I1
tRp12
(I3
S'|'
NNNI13
I1
I0
tbS'characterless'
tRp13
I11
sg2
(g3
(S'S5'
I0
I1
tRp14
(I3
S'|'
NNNI5
I1
I0
tbS'saved'
tRp15
I12
sg2
(g3
(S'S13'
I0
I1
tRp16
(I3
S'|'
NNNI13
I1
I0
tbS'relationships'
tRp17
I14
sg2
(g3
(S'S5'
I0
I1
tRp18
(I3
S'|'
NNNI5
I1
I0
tbS'whose'
tRp19
I15
sg2
(g3
(S'S11'
I0
I1
tRp20
(I3
S'|'
NNNI11
I1
I0
tbS'electricity'
tRp21
I17
sg2
(g3
(S'S13'
I0
I1
tRp22
(I3
S'|'
NNNI13
I1
I0
tbS'investigation'
tRp23
I1288
sg2
(g3
(S'S5'
I0
I1
tRp24
(I3
S'|'
NNNI5
I1
I0
tbS'under'
tRp25
I23
sg2
(g3
(S'S7'
I0
I1
tRp26
(I3
S'|'
NNNI7
I1
I0
tbS'bangles'
tRp27
I24
sg2
(g3
(S'S8'
I0
I1
tRp28
(I3
S'|'
NNNI8
I1
I0
tbS'immature'
tRp29
I25
sg2
(g3
(S'S7'
I0
I1
tRp30
(I3
S'|'
NNNI7
I1
I0
tbS'regrets'
tRp31
I27
sg2
(g3
(S'S6'
I0
I1
tRp32
(I3
S'|'
NNNI6
I1
I0
tbS'placed'
tRp33
I1827
sg2
(g3
(S'S8'
I0
I1
tRp34
(I3
S'|'
NNNI8
I1
I0
tbS'merchant'
tRp35
I28
sg2
(g3
(S'S6'
I0
I1
tRp36
(I3
S'|'
NNNI6
I1
I0
tbS'rescue'
tRp37
I193
sg2
(g3
(S'S7'
I0
I1
tRp38
(I3
S'|'
NNNI7
I1
I0
tbS'forties'
tRp39
I228
sg2
(g3
(S'S5'
I0
I1
tRp40
(I3
S'|'
NNNI5
I1
I0
tbS'every'
tRp41
I36
sg2
(g3
(S'S6'
I0
I1
tRp42
(I3
S'|'
NNNI6
I1
I0
tbS'affect'
tRp43
I40
sg2
(g3
(S'S8'
I0
I1
tRp44
(I3
S'|'
NNNI8
I1
I0
tbS'bringing'
tRp45
I41
sg2
(g3
(S'S6'
I0
I1
tRp46
(I3
S'|'
NNNI6
I1
I0
tbS'school'
tRp47
I43
sg2
(g3
(S'S9'
I0
I1
tRp48
(I3
S'|'
NNNI9
I1
I0
tbS'molesting'
tRp49
I278
sg2
(g3
(S'S11'
I0
I1
tRp50
(I3
S'|'
NNNI11
I1
I0
tbS'progression'
tRp51
I47
sg2
(g3
(S'S5'
I0
I1
tRp52
(I3
S'|'
NNNI5
I1
I0
tbS'cause'
tRp53
I48
sg2
(g3
(S'S8'
I0
I1
tRp54
(I3
S'|'
NNNI8
I1
I0
tbS'solution'
tRp55
I298
sg2
(g3
(S'S8'
I0
I1
tRp56
(I3
S'|'
NNNI8
I1
I0
tbS'reliable'
tRp57
I55
sg2
(g3
(S'S7'
I0
I1
tRp58
(I3
S'|'
NNNI7
I1
I0
tbS'clothes'
tRp59
I56
sg2
(g3
(S'S5'
I0
I1
tRp60
(I3
S'|'
NNNI5
I1
I0
tbS'force'
tRp61
I58
sg2
(g3
(S'S8'
I0
I1
tRp62
(I3
S'|'
NNNI8
I1
I0
tbS'japanese'
tRp63
I61
sg2
(g3
(S'S6'
I0
I1
tRp64
(I3
S'|'
NNNI6
I1
I0
tbS'likely'
tRp65
I63
sg2
(g3
(S'S6'
I0
I1
tRp66
(I3
S'|'
NNNI6
I1
I0
tbS'street'
tRp67
I64
sg2
(g3
(S'S11'
I0
I1
tRp68
(I3
S'|'
NNNI11
I1
I0
tbS'subordinate'
tRp69
I66
sg2
(g3
(S'S6'
I0
I1
tRp70
(I3
S'|'
NNNI6
I1
I0
tbS'kidnap'
tRp71
I67
sg2
(g3
(S'S4'
I0
I1
tRp72
(I3
S'|'
NNNI4
I1
I0
tbS'even'
tRp73
I68
sg2
(g3
(S'S8'
I0
I1
tRp74
(I3
S'|'
NNNI8
I1
I0
tbS'selected'
tRp75
I74
sg2
(g3
(S'S8'
I0
I1
tRp76
(I3
S'|'
NNNI8
I1
I0
tbS'revolves'
tRp77
I75
sg2
(g3
(S'S6'
I0
I1
tRp78
(I3
S'|'
NNNI6
I1
I0
tbS'abides'
tRp79
I77
sg2
(g3
(S'S5'
I0
I1
tRp80
(I3
S'|'
NNNI5
I1
I0
tbS'above'
tRp81
I78
sg2
(g3
(S'S7'
I0
I1
tRp82
(I3
S'|'
NNNI7
I1
I0
tbS'endorse'
tRp83
I79
sg2
(g3
(S'S3'
I0
I1
tRp84
(I3
S'|'
NNNI3
I1
I0
tbS'new'
tRp85
I80
sg2
(g3
(S'S5'
I0
I1
tRp86
(I3
S'|'
NNNI5
I1
I0
tbS'seeks'
tRp87
I83
sg2
(g3
(S'S4'
I0
I1
tRp88
(I3
S'|'
NNNI4
I1
I0
tbS'told'
tRp89
I396
sg2
(g3
(S'S4'
I0
I1
tRp90
(I3
S'|'
NNNI4
I1
I0
tbS'hero'
tRp91
I87
sg2
(g3
(S'S3'
I0
I1
tRp92
(I3
S'|'
NNNI3
I1
I0
tbS'men'
tRp93
I1180
sg2
(g3
(S'S4'
I0
I1
tRp94
(I3
S'|'
NNNI4
I1
I0
tbS'here'
tRp95
I89
sg2
(g3
(S'S3'
I0
I1
tRp96
(I3
S'|'
NNNI3
I1
I0
tbS'met'
tRp97
I92
sg2
(g3
(S'S6'
I0
I1
tRp98
(I3
S'|'
NNNI6
I1
I0
tbS'studio'
tRp99
I94
sg2
(g3
(S'S6'
I0
I1
tRp100
(I3
S'|'
NNNI6
I1
I0
tbS'active'
tRp101
I96
sg2
(g3
(S'S7'
I0
I1
tRp102
(I3
S'|'
NNNI7
I1
I0
tbS'natured'
tRp103
I99
sg2
(g3
(S'S7'
I0
I1
tRp104
(I3
S'|'
NNNI7
I1
I0
tbS'murders'
tRp105
I101
sg2
(g3
(S'S8'
I0
I1
tRp106
(I3
S'|'
NNNI8
I1
I0
tbS'daughter'
tRp107
I102
sg2
(g3
(S'S6'
I0
I1
tRp108
(I3
S'|'
NNNI6
I1
I0
tbS'leaves'
tRp109
I104
sg2
(g3
(S'S7'
I0
I1
tRp110
(I3
S'|'
NNNI7
I1
I0
tbS'changed'
tRp111
I105
sg2
(g3
(S'S7'
I0
I1
tRp112
(I3
S'|'
NNNI7
I1
I0
tbS'reports'
tRp113
I681
sg2
(g3
(S'S8'
I0
I1
tRp114
(I3
S'|'
NNNI8
I1
I0
tbS'suitable'
tRp115
I112
sg2
(g3
(S'S7'
I0
I1
tRp116
(I3
S'|'
NNNI7
I1
I0
tbS'changes'
tRp117
I113
sg2
(g3
(S'S6'
I0
I1
tRp118
(I3
S'|'
NNNI6
I1
I0
tbS'midway'
tRp119
I114
sg2
(g3
(S'S8'
I0
I1
tRp120
(I3
S'|'
NNNI8
I1
I0
tbS'swearing'
tRp121
I116
sg2
(g3
(S'S7'
I0
I1
tRp122
(I3
S'|'
NNNI7
I1
I0
tbS'angrily'
tRp123
I119
sg2
(g3
(S'S8'
I0
I1
tRp124
(I3
S'|'
NNNI8
I1
I0
tbS'feelings'
tRp125
I120
sg2
(g3
(S'S7'
I0
I1
tRp126
(I3
S'|'
NNNI7
I1
I0
tbS'brought'
tRp127
I121
sg2
(g3
(S'S5'
I0
I1
tRp128
(I3
S'|'
NNNI5
I1
I0
tbS'moral'
tRp129
I123
sg2
(g3
(S'S4'
I0
I1
tRp130
(I3
S'|'
NNNI4
I1
I0
tbS'plot'
tRp131
I125
sg2
(g3
(S'S9'
I0
I1
tRp132
(I3
S'|'
NNNI9
I1
I0
tbS'criminals'
tRp133
I126
sg2
(g3
(S'S5'
I0
I1
tRp134
(I3
S'|'
NNNI5
I1
I0
tbS'would'
tRp135
I129
sg2
(g3
(S'S4'
I0
I1
tRp136
(I3
S'|'
NNNI4
I1
I0
tbS'army'
tRp137
I130
sg2
(g3
(S'S8'
I0
I1
tRp138
(I3
S'|'
NNNI8
I1
I0
tbS'hospital'
tRp139
I132
sg2
(g3
(S'S4'
I0
I1
tRp140
(I3
S'|'
NNNI4
I1
I0
tbS'arms'
tRp141
I848
sg2
(g3
(S'S8'
I0
I1
tRp142
(I3
S'|'
NNNI8
I1
I0
tbS'princess'
tRp143
I1303
sg2
(g3
(S'S6'
I0
I1
tRp144
(I3
S'|'
NNNI6
I1
I0
tbS'dacoit'
tRp145
I136
sg2
(g3
(S'S5'
I0
I1
tRp146
(I3
S'|'
NNNI5
I1
I0
tbS'music'
tRp147
I137
sg2
(g3
(S'S6'
I0
I1
tRp148
(I3
S'|'
NNNI6
I1
I0
tbS'strike'
tRp149
I1335
sg2
(g3
(S'S7'
I0
I1
tRp150
(I3
S'|'
NNNI7
I1
I0
tbS'survive'
tRp151
I887
sg2
(g3
(S'S4'
I0
I1
tRp152
(I3
S'|'
NNNI4
I1
I0
tbS'25th'
tRp153
I141
sg2
(g3
(S'S4'
I0
I1
tRp154
(I3
S'|'
NNNI4
I1
I0
tbS'type'
tRp155
I142
sg2
(g3
(S'S5'
I0
I1
tRp156
(I3
S'|'
NNNI5
I1
I0
tbS'until'
tRp157
I143
sg2
(g3
(S'S9'
I0
I1
tRp158
(I3
S'|'
NNNI9
I1
I0
tbS'separated'
tRp159
I145
sg2
(g3
(S'S7'
I0
I1
tRp160
(I3
S'|'
NNNI7
I1
I0
tbS'playboy'
tRp161
I146
sg2
(g3
(S'S10'
I0
I1
tRp162
(I3
S'|'
NNNI10
I1
I0
tbS'successful'
tRp163
I149
sg2
(g3
(S'S6'
I0
I1
tRp164
(I3
S'|'
NNNI6
I1
I0
tbS'brings'
tRp165
I307
sg2
(g3
(S'S6'
I0
I1
tRp166
(I3
S'|'
NNNI6
I1
I0
tbS'expose'
tRp167
I151
sg2
(g3
(S'S5'
I0
I1
tRp168
(I3
S'|'
NNNI5
I1
I0
tbS'aware'
tRp169
I152
sg2
(g3
(S'S4'
I0
I1
tRp170
(I3
S'|'
NNNI4
I1
I0
tbS'warn'
tRp171
I153
sg2
(g3
(S'S5'
I0
I1
tRp172
(I3
S'|'
NNNI5
I1
I0
tbS'phone'
tRp173
I154
sg2
(g3
(S'S4'
I0
I1
tRp174
(I3
S'|'
NNNI4
I1
I0
tbS'warm'
tRp175
I156
sg2
(g3
(S'S5'
I0
I1
tRp176
(I3
S'|'
NNNI5
I1
I0
tbS'adult'
tRp177
I158
sg2
(g3
(S'S6'
I0
I1
tRp178
(I3
S'|'
NNNI6
I1
I0
tbS'former'
tRp179
I1584
sg2
(g3
(S'S4'
I0
I1
tRp180
(I3
S'|'
NNNI4
I1
I0
tbS'hold'
tRp181
I160
sg2
(g3
(S'S4'
I0
I1
tRp182
(I3
S'|'
NNNI4
I1
I0
tbS'must'
tRp183
I161
sg2
(g3
(S'S5'
I0
I1
tRp184
(I3
S'|'
NNNI5
I1
I0
tbS'shoot'
tRp185
I162
sg2
(g3
(S'S2'
I0
I1
tRp186
(I3
S'|'
NNNI2
I1
I0
tbS'md'
tRp187
I163
sg2
(g3
(S'S10'
I0
I1
tRp188
(I3
S'|'
NNNI10
I1
I0
tbS'ostracized'
tRp189
I1005
sg2
(g3
(S'S4'
I0
I1
tRp190
(I3
S'|'
NNNI4
I1
I0
tbS'room'
tRp191
I167
sg2
(g3
(S'S7'
I0
I1
tRp192
(I3
S'|'
NNNI7
I1
I0
tbS'permits'
tRp193
I168
sg2
(g3
(S'S6'
I0
I1
tRp194
(I3
S'|'
NNNI6
I1
I0
tbS'pursue'
tRp195
I169
sg2
(g3
(S'S4'
I0
I1
tRp196
(I3
S'|'
NNNI4
I1
I0
tbS'work'
tRp197
I170
sg2
(g3
(S'S4'
I0
I1
tRp198
(I3
S'|'
NNNI4
I1
I0
tbS'roof'
tRp199
I171
sg2
(g3
(S'S6'
I0
I1
tRp200
(I3
S'|'
NNNI6
I1
I0
tbS'movies'
tRp201
I173
sg2
(g3
(S'S8'
I0
I1
tRp202
(I3
S'|'
NNNI8
I1
I0
tbS'bungalow'
tRp203
I175
sg2
(g3
(S'S6'
I0
I1
tRp204
(I3
S'|'
NNNI6
I1
I0
tbS'estate'
tRp205
I180
sg2
(g3
(S'S4'
I0
I1
tRp206
(I3
S'|'
NNNI4
I1
I0
tbS'give'
tRp207
I181
sg2
(g3
(S'S9'
I0
I1
tRp208
(I3
S'|'
NNNI9
I1
I0
tbS'household'
tRp209
I1111
sg2
(g3
(S'S5'
I0
I1
tRp210
(I3
S'|'
NNNI5
I1
I0
tbS'india'
tRp211
I184
sg2
(g3
(S'S9'
I0
I1
tRp212
(I3
S'|'
NNNI9
I1
I0
tbS'indicates'
tRp213
I188
sg2
(g3
(S'S6'
I0
I1
tRp214
(I3
S'|'
NNNI6
I1
I0
tbS'mig-21'
tRp215
I189
sg2
(g3
(S'S4'
I0
I1
tRp216
(I3
S'|'
NNNI4
I1
I0
tbS'keep'
tRp217
I1647
sg2
(g3
(S'S8'
I0
I1
tRp218
(I3
S'|'
NNNI8
I1
I0
tbS'ceremony'
tRp219
I194
sg2
(g3
(S'S5'
I0
I1
tRp220
(I3
S'|'
NNNI5
I1
I0
tbS'aging'
tRp221
I195
sg2
(g3
(S'S3'
I0
I1
tRp222
(I3
S'|'
NNNI3
I1
I0
tbS'end'
tRp223
I197
sg2
(g3
(S'S7'
I0
I1
tRp224
(I3
S'|'
NNNI7
I1
I0
tbS'illicit'
tRp225
I1313
sg2
(g3
(S'S7'
I0
I1
tRp226
(I3
S'|'
NNNI7
I1
I0
tbS'provide'
tRp227
I1194
sg2
(g3
(S'S5'
I0
I1
tRp228
(I3
S'|'
NNNI5
I1
I0
tbS'agony'
tRp229
I200
sg2
(g3
(S'S6'
I0
I1
tRp230
(I3
S'|'
NNNI6
I1
I0
tbS'travel'
tRp231
I201
sg2
(g3
(S'S9'
I0
I1
tRp232
(I3
S'|'
NNNI9
I1
I0
tbS'returning'
tRp233
I332
sg2
(g3
(S'S8'
I0
I1
tRp234
(I3
S'|'
NNNI8
I1
I0
tbS'recovers'
tRp235
I203
sg2
(g3
(S'S3'
I0
I1
tRp236
(I3
S'|'
NNNI3
I1
I0
tbS'how'
tRp237
I204
sg2
(g3
(S'S8'
I0
I1
tRp238
(I3
S'|'
NNNI8
I1
I0
tbS'playback'
tRp239
I205
sg2
(g3
(S'S8'
I0
I1
tRp240
(I3
S'|'
NNNI8
I1
I0
tbS'ordinary'
tRp241
I207
sg2
(g3
(S'S5'
I0
I1
tRp242
(I3
S'|'
NNNI5
I1
I0
tbS'badly'
tRp243
I210
sg2
(g3
(S'S3'
I0
I1
tRp244
(I3
S'|'
NNNI3
I1
I0
tbS'lad'
tRp245
I213
sg2
(g3
(S'S5'
I0
I1
tRp246
(I3
S'|'
NNNI5
I1
I0
tbS'after'
tRp247
I215
sg2
(g3
(S'S7'
I0
I1
tRp248
(I3
S'|'
NNNI7
I1
I0
tbS'customs'
tRp249
I216
sg2
(g3
(S'S5'
I0
I1
tRp250
(I3
S'|'
NNNI5
I1
I0
tbS'wrong'
tRp251
I1311
sg2
(g3
(S'S3'
I0
I1
tRp252
(I3
S'|'
NNNI3
I1
I0
tbS'law'
tRp253
I221
sg2
(g3
(S'S8'
I0
I1
tRp254
(I3
S'|'
NNNI8
I1
I0
tbS'parallel'
tRp255
I222
sg2
(g3
(S'S7'
I0
I1
tRp256
(I3
S'|'
NNNI7
I1
I0
tbS'attempt'
tRp257
I224
sg2
(g3
(S'S4'
I0
I1
tRp258
(I3
S'|'
NNNI4
I1
I0
tbS'wins'
tRp259
I225
sg2
(g3
(S'S5'
I0
I1
tRp260
(I3
S'|'
NNNI5
I1
I0
tbS'rogue'
tRp261
I878
sg2
(g3
(S'S9'
I0
I1
tRp262
(I3
S'|'
NNNI9
I1
I0
tbS'ambulance'
tRp263
I229
sg2
(g3
(S'S9'
I0
I1
tRp264
(I3
S'|'
NNNI9
I1
I0
tbS'overtakes'
tRp265
I230
sg2
(g3
(S'S5'
I0
I1
tRp266
(I3
S'|'
NNNI5
I1
I0
tbS'order'
tRp267
I232
sg2
(g3
(S'S8'
I0
I1
tRp268
(I3
S'|'
NNNI8
I1
I0
tbS'backdrop'
tRp269
I233
sg2
(g3
(S'S10'
I0
I1
tRp270
(I3
S'|'
NNNI10
I1
I0
tbS'operations'
tRp271
I234
sg2
(g3
(S'S6'
I0
I1
tRp272
(I3
S'|'
NNNI6
I1
I0
tbS'office'
tRp273
I236
sg2
(g3
(S'S8'
I0
I1
tRp274
(I3
S'|'
NNNI8
I1
I0
tbS'welcomed'
tRp275
I238
sg2
(g3
(S'S7'
I0
I1
tRp276
(I3
S'|'
NNNI7
I1
I0
tbS'consent'
tRp277
I239
sg2
(g3
(S'S4'
I0
I1
tRp278
(I3
S'|'
NNNI4
I1
I0
tbS'over'
tRp279
I240
sg2
(g3
(S'S7'
I0
I1
tRp280
(I3
S'|'
NNNI7
I1
I0
tbS'tricked'
tRp281
I305
sg2
(g3
(S'S8'
I0
I1
tRp282
(I3
S'|'
NNNI8
I1
I0
tbS'guidance'
tRp283
I911
sg2
(g3
(S'S6'
I0
I1
tRp284
(I3
S'|'
NNNI6
I1
I0
tbS'london'
tRp285
I246
sg2
(g3
(S'S7'
I0
I1
tRp286
(I3
S'|'
NNNI7
I1
I0
tbS'lookout'
tRp287
I1605
sg2
(g3
(S'S6'
I0
I1
tRp288
(I3
S'|'
NNNI6
I1
I0
tbS'before'
tRp289
I252
sg2
(g3
(S'S3'
I0
I1
tRp290
(I3
S'|'
NNNI3
I1
I0
tbS'fir'
tRp291
I253
sg2
(g3
(S'S3'
I0
I1
tRp292
(I3
S'|'
NNNI3
I1
I0
tbS'fit'
tRp293
I257
sg2
(g3
(S'S12'
I0
I1
tRp294
(I3
S'|'
NNNI12
I1
I0
tbS'expectations'
tRp295
I259
sg2
(g3
(S'S6'
I0
I1
tRp296
(I3
S'|'
NNNI6
I1
I0
tbS'better'
tRp297
I261
sg2
(g3
(S'S8'
I0
I1
tRp298
(I3
S'|'
NNNI8
I1
I0
tbS'overcome'
tRp299
I265
sg2
(g3
(S'S4'
I0
I1
tRp300
(I3
S'|'
NNNI4
I1
I0
tbS'then'
tRp301
I267
sg2
(g3
(S'S4'
I0
I1
tRp302
(I3
S'|'
NNNI4
I1
I0
tbS'them'
tRp303
I268
sg2
(g3
(S'S5'
I0
I1
tRp304
(I3
S'|'
NNNI5
I1
I0
tbS'break'
tRp305
I274
sg2
(g3
(S'S4'
I0
I1
tRp306
(I3
S'|'
NNNI4
I1
I0
tbS'they'
tRp307
I275
sg2
(g3
(S'S7'
I0
I1
tRp308
(I3
S'|'
NNNI7
I1
I0
tbS'sixteen'
tRp309
I276
sg2
(g3
(S'S4'
I0
I1
tRp310
(I3
S'|'
NNNI4
I1
I0
tbS'bank'
tRp311
I277
sg2
(g3
(S'S7'
I0
I1
tRp312
(I3
S'|'
NNNI7
I1
I0
tbS'gallows'
tRp313
I585
sg2
(g3
(S'S8'
I0
I1
tRp314
(I3
S'|'
NNNI8
I1
I0
tbS'arrested'
tRp315
I283
sg2
(g3
(S'S5'
I0
I1
tRp316
(I3
S'|'
NNNI5
I1
I0
tbS'dumps'
tRp317
I284
sg2
(g3
(S'S4'
I0
I1
tRp318
(I3
S'|'
NNNI4
I1
I0
tbS'each'
tRp319
I287
sg2
(g3
(S'S4'
I0
I1
tRp320
(I3
S'|'
NNNI4
I1
I0
tbS'bond'
tRp321
I290
sg2
(g3
(S'S4'
I0
I1
tRp322
(I3
S'|'
NNNI4
I1
I0
tbS'woes'
tRp323
I293
sg2
(g3
(S'S7'
I0
I1
tRp324
(I3
S'|'
NNNI7
I1
I0
tbS'marital'
tRp325
I830
sg2
(g3
(S'S5'
I0
I1
tRp326
(I3
S'|'
NNNI5
I1
I0
tbS'owner'
tRp327
I1332
sg2
(g3
(S'S4'
I0
I1
tRp328
(I3
S'|'
NNNI4
I1
I0
tbS'used'
tRp329
I300
sg2
(g3
(S'S7'
I0
I1
tRp330
(I3
S'|'
NNNI7
I1
I0
tbS'trading'
tRp331
I301
sg2
(g3
(S'S8'
I0
I1
tRp332
(I3
S'|'
NNNI8
I1
I0
tbS'defences'
tRp333
I302
sg2
(g3
(S'S6'
I0
I1
tRp334
(I3
S'|'
NNNI6
I1
I0
tbS'hostel'
tRp335
I308
sg2
(g3
(S'S10'
I0
I1
tRp336
(I3
S'|'
NNNI10
I1
I0
tbS'misfortune'
tRp337
I310
sg2
(g3
(S'S3'
I0
I1
tRp338
(I3
S'|'
NNNI3
I1
I0
tbS'god'
tRp339
I313
sg2
(g3
(S'S5'
I0
I1
tRp340
(I3
S'|'
NNNI5
I1
I0
tbS'adapt'
tRp341
I319
sg2
(g3
(S'S8'
I0
I1
tRp342
(I3
S'|'
NNNI8
I1
I0
tbS'surprise'
tRp343
I321
sg2
(g3
(S'S11'
I0
I1
tRp344
(I3
S'|'
NNNI11
I1
I0
tbS'moneylender'
tRp345
I322
sg2
(g3
(S'S8'
I0
I1
tRp346
(I3
S'|'
NNNI8
I1
I0
tbS'assaults'
tRp347
I323
sg2
(g3
(S'S9'
I0
I1
tRp348
(I3
S'|'
NNNI9
I1
I0
tbS'associate'
tRp349
I324
sg2
(g3
(S'S7'
I0
I1
tRp350
(I3
S'|'
NNNI7
I1
I0
tbS'revenge'
tRp351
I326
sg2
(g3
(S'S4'
I0
I1
tRp352
(I3
S'|'
NNNI4
I1
I0
tbS'free'
tRp353
I327
sg2
(g3
(S'S7'
I0
I1
tRp354
(I3
S'|'
NNNI7
I1
I0
tbS'assures'
tRp355
I103
sg2
(g3
(S'S8'
I0
I1
tRp356
(I3
S'|'
NNNI8
I1
I0
tbS'struggle'
tRp357
I115
sg2
(g3
(S'S8'
I0
I1
tRp358
(I3
S'|'
NNNI8
I1
I0
tbS'forcibly'
tRp359
I122
sg2
(g3
(S'S6'
I0
I1
tRp360
(I3
S'|'
NNNI6
I1
I0
tbS'wanted'
tRp361
I333
sg2
(g3
(S'S7'
I0
I1
tRp362
(I3
S'|'
NNNI7
I1
I0
tbS'created'
tRp363
I337
sg2
(g3
(S'S6'
I0
I1
tRp364
(I3
S'|'
NNNI6
I1
I0
tbS'starts'
tRp365
I339
sg2
(g3
(S'S6'
I0
I1
tRp366
(I3
S'|'
NNNI6
I1
I0
tbS'cosmic'
tRp367
I182
sg2
(g3
(S'S4'
I0
I1
tRp368
(I3
S'|'
NNNI4
I1
I0
tbS'days'
tRp369
I187
sg2
(g3
(S'S7'
I0
I1
tRp370
(I3
S'|'
NNNI7
I1
I0
tbS'creates'
tRp371
I342
sg2
(g3
(S'S9'
I0
I1
tRp372
(I3
S'|'
NNNI9
I1
I0
tbS'musicians'
tRp373
I343
sg2
(g3
(S'S6'
I0
I1
tRp374
(I3
S'|'
NNNI6
I1
I0
tbS'penury'
tRp375
I349
sg2
(g3
(S'S7'
I0
I1
tRp376
(I3
S'|'
NNNI7
I1
I0
tbS'enraged'
tRp377
I350
sg2
(g3
(S'S7'
I0
I1
tRp378
(I3
S'|'
NNNI7
I1
I0
tbS'already'
tRp379
I352
sg2
(g3
(S'S6'
I0
I1
tRp380
(I3
S'|'
NNNI6
I1
I0
tbS'render'
tRp381
I353
sg2
(g3
(S'S7'
I0
I1
tRp382
(I3
S'|'
NNNI7
I1
I0
tbS'hearing'
tRp383
I358
sg2
(g3
(S'S7'
I0
I1
tRp384
(I3
S'|'
NNNI7
I1
I0
tbS'another'
tRp385
I360
sg2
(g3
(S'S9'
I0
I1
tRp386
(I3
S'|'
NNNI9
I1
I0
tbS'immensely'
tRp387
I306
sg2
(g3
(S'S5'
I0
I1
tRp388
(I3
S'|'
NNNI5
I1
I0
tbS'ditch'
tRp389
I364
sg2
(g3
(S'S10'
I0
I1
tRp390
(I3
S'|'
NNNI10
I1
I0
tbS'reciprocal'
tRp391
I46
sg2
(g3
(S'S4'
I0
I1
tRp392
(I3
S'|'
NNNI4
I1
I0
tbS'goon'
tRp393
I1630
sg2
(g3
(S'S10'
I0
I1
tRp394
(I3
S'|'
NNNI10
I1
I0
tbS'engagement'
tRp395
I369
sg2
(g3
(S'S11'
I0
I1
tRp396
(I3
S'|'
NNNI11
I1
I0
tbS'dumbfounded'
tRp397
I1116
sg2
(g3
(S'S6'
I0
I1
tRp398
(I3
S'|'
NNNI6
I1
I0
tbS'master'
tRp399
I373
sg2
(g3
(S'S3'
I0
I1
tRp400
(I3
S'|'
NNNI3
I1
I0
tbS'too'
tRp401
I377
sg2
(g3
(S'S4'
I0
I1
tRp402
(I3
S'|'
NNNI4
I1
I0
tbS'legs'
tRp403
I1770
sg2
(g3
(S'S6'
I0
I1
tRp404
(I3
S'|'
NNNI6
I1
I0
tbS'bitter'
tRp405
I376
sg2
(g3
(S'S6'
I0
I1
tRp406
(I3
S'|'
NNNI6
I1
I0
tbS'murder'
tRp407
I379
sg2
(g3
(S'S13'
I0
I1
tRp408
(I3
S'|'
NNNI13
I1
I0
tbS'grandchildren'
tRp409
I381
sg2
(g3
(S'S7'
I0
I1
tRp410
(I3
S'|'
NNNI7
I1
I0
tbS'happily'
tRp411
I383
sg2
(g3
(S'S8'
I0
I1
tRp412
(I3
S'|'
NNNI8
I1
I0
tbS'boarding'
tRp413
I392
sg2
(g3
(S'S7'
I0
I1
tRp414
(I3
S'|'
NNNI7
I1
I0
tbS'kidnaps'
tRp415
I393
sg2
(g3
(S'S7'
I0
I1
tRp416
(I3
S'|'
NNNI7
I1
I0
tbS'nations'
tRp417
I398
sg2
(g3
(S'S11'
I0
I1
tRp418
(I3
S'|'
NNNI11
I1
I0
tbS'preparation'
tRp419
I399
sg2
(g3
(S'S6'
I0
I1
tRp420
(I3
S'|'
NNNI6
I1
I0
tbS'matter'
tRp421
I400
sg2
(g3
(S'S5'
I0
I1
tRp422
(I3
S'|'
NNNI5
I1
I0
tbS'sheen'
tRp423
I805
sg2
(g3
(S'S7'
I0
I1
tRp424
(I3
S'|'
NNNI7
I1
I0
tbS'spoiled'
tRp425
I404
sg2
(g3
(S'S9'
I0
I1
tRp426
(I3
S'|'
NNNI9
I1
I0
tbS'prankster'
tRp427
I1478
sg2
(g3
(S'S6'
I0
I1
tRp428
(I3
S'|'
NNNI6
I1
I0
tbS'bridge'
tRp429
I408
sg2
(g3
(S'S4'
I0
I1
tRp430
(I3
S'|'
NNNI4
I1
I0
tbS'sees'
tRp431
I410
sg2
(g3
(S'S6'
I0
I1
tRp432
(I3
S'|'
NNNI6
I1
I0
tbS'modern'
tRp433
I519
sg2
(g3
(S'S4'
I0
I1
tRp434
(I3
S'|'
NNNI4
I1
I0
tbS'mind'
tRp435
I412
sg2
(g3
(S'S8'
I0
I1
tRp436
(I3
S'|'
NNNI8
I1
I0
tbS'pantheon'
tRp437
I654
sg2
(g3
(S'S4'
I0
I1
tRp438
(I3
S'|'
NNNI4
I1
I0
tbS'seen'
tRp439
I418
sg2
(g3
(S'S4'
I0
I1
tRp440
(I3
S'|'
NNNI4
I1
I0
tbS'seek'
tRp441
I420
sg2
(g3
(S'S5'
I0
I1
tRp442
(I3
S'|'
NNNI5
I1
I0
tbS'tells'
tRp443
I421
sg2
(g3
(S'S6'
I0
I1
tRp444
(I3
S'|'
NNNI6
I1
I0
tbS'forced'
tRp445
I422
sg2
(g3
(S'S5'
I0
I1
tRp446
(I3
S'|'
NNNI5
I1
I0
tbS'laden'
tRp447
I426
sg2
(g3
(S'S6'
I0
I1
tRp448
(I3
S'|'
NNNI6
I1
I0
tbS'latter'
tRp449
I427
sg2
(g3
(S'S1'
I0
I1
tRp450
(I3
S'|'
NNNI1
I1
I0
tbS'-'
tRp451
I428
sg2
(g3
(S'S6'
I0
I1
tRp452
(I3
S'|'
NNNI6
I1
I0
tbS'forces'
tRp453
I433
sg2
(g3
(S'S10'
I0
I1
tRp454
(I3
S'|'
NNNI10
I1
I0
tbS'committing'
tRp455
I438
sg2
(g3
(S'S6'
I0
I1
tRp456
(I3
S'|'
NNNI6
I1
I0
tbS'maiden'
tRp457
I439
sg2
(g3
(S'S5'
I0
I1
tRp458
(I3
S'|'
NNNI5
I1
I0
tbS'shall'
tRp459
I440
sg2
(g3
(S'S9'
I0
I1
tRp460
(I3
S'|'
NNNI9
I1
I0
tbS'involving'
tRp461
I446
sg2
(g3
(S'S6'
I0
I1
tRp462
(I3
S'|'
NNNI6
I1
I0
tbS'hearts'
tRp463
I449
sg2
(g3
(S'S10'
I0
I1
tRp464
(I3
S'|'
NNNI10
I1
I0
tbS'explosives'
tRp465
I367
sg2
(g3
(S'S6'
I0
I1
tRp466
(I3
S'|'
NNNI6
I1
I0
tbS'singer'
tRp467
I454
sg2
(g3
(S'S3'
I0
I1
tRp468
(I3
S'|'
NNNI3
I1
I0
tbS'don'
tRp469
I455
sg2
(g3
(S'S7'
I0
I1
tRp470
(I3
S'|'
NNNI7
I1
I0
tbS'punjabi'
tRp471
I457
sg2
(g3
(S'S7'
I0
I1
tRp472
(I3
S'|'
NNNI7
I1
I0
tbS'stating'
tRp473
I54
sg2
(g3
(S'S10'
I0
I1
tRp474
(I3
S'|'
NNNI10
I1
I0
tbS'reputation'
tRp475
I460
sg2
(g3
(S'S4'
I0
I1
tRp476
(I3
S'|'
NNNI4
I1
I0
tbS'aunt'
tRp477
I461
sg2
(g3
(S'S4'
I0
I1
tRp478
(I3
S'|'
NNNI4
I1
I0
tbS'came'
tRp479
I465
sg2
(g3
(S'S6'
I0
I1
tRp480
(I3
S'|'
NNNI6
I1
I0
tbS'saying'
tRp481
I973
sg2
(g3
(S'S4'
I0
I1
tRp482
(I3
S'|'
NNNI4
I1
I0
tbS'bomb'
tRp483
I467
sg2
(g3
(S'S6'
I0
I1
tRp484
(I3
S'|'
NNNI6
I1
I0
tbS'retire'
tRp485
I469
sg2
(g3
(S'S4'
I0
I1
tRp486
(I3
S'|'
NNNI4
I1
I0
tbS'sage'
tRp487
I470
sg2
(g3
(S'S8'
I0
I1
tRp488
(I3
S'|'
NNNI8
I1
I0
tbS'attempts'
tRp489
I472
sg2
(g3
(S'S11'
I0
I1
tRp490
(I3
S'|'
NNNI11
I1
I0
tbS'participate'
tRp491
I474
sg2
(g3
(S'S6'
I0
I1
tRp492
(I3
S'|'
NNNI6
I1
I0
tbS'nephew'
tRp493
I1035
sg2
(g3
(S'S4'
I0
I1
tRp494
(I3
S'|'
NNNI4
I1
I0
tbS'bail'
tRp495
I477
sg2
(g3
(S'S4'
I0
I1
tRp496
(I3
S'|'
NNNI4
I1
I0
tbS'make'
tRp497
I479
sg2
(g3
(S'S13'
I0
I1
tRp498
(I3
S'|'
NNNI13
I1
I0
tbS'consciousness'
tRp499
I482
sg2
(g3
(S'S14'
I0
I1
tRp500
(I3
S'|'
NNNI14
I1
I0
tbS'implementation'
tRp501
I483
sg2
(g3
(S'S7'
I0
I1
tRp502
(I3
S'|'
NNNI7
I1
I0
tbS'explain'
tRp503
I852
sg2
(g3
(S'S6'
I0
I1
tRp504
(I3
S'|'
NNNI6
I1
I0
tbS'jailer'
tRp505
I485
sg2
(g3
(S'S4'
I0
I1
tRp506
(I3
S'|'
NNNI4
I1
I0
tbS'rich'
tRp507
I489
sg2
(g3
(S'S5'
I0
I1
tRp508
(I3
S'|'
NNNI5
I1
I0
tbS'photo'
tRp509
I490
sg2
(g3
(S'S6'
I0
I1
tRp510
(I3
S'|'
NNNI6
I1
I0
tbS'jailed'
tRp511
I493
sg2
(g3
(S'S11'
I0
I1
tRp512
(I3
S'|'
NNNI11
I1
I0
tbS'personality'
tRp513
I494
sg2
(g3
(S'S2'
I0
I1
tRp514
(I3
S'|'
NNNI2
I1
I0
tbS'do'
tRp515
I495
sg2
(g3
(S'S7'
I0
I1
tRp516
(I3
S'|'
NNNI7
I1
I0
tbS'conduct'
tRp517
I1483
sg2
(g3
(S'S4'
I0
I1
tRp518
(I3
S'|'
NNNI4
I1
I0
tbS'stop'
tRp519
I502
sg2
(g3
(S'S7'
I0
I1
tRp520
(I3
S'|'
NNNI7
I1
I0
tbS'terrors'
tRp521
I503
sg2
(g3
(S'S7'
I0
I1
tRp522
(I3
S'|'
NNNI7
I1
I0
tbS'wedding'
tRp523
I508
sg2
(g3
(S'S5'
I0
I1
tRp524
(I3
S'|'
NNNI5
I1
I0
tbS'nasty'
tRp525
I510
sg2
(g3
(S'S2'
I0
I1
tRp526
(I3
S'|'
NNNI2
I1
I0
tbS'dr'
tRp527
I511
sg2
(g3
(S'S4'
I0
I1
tRp528
(I3
S'|'
NNNI4
I1
I0
tbS'earn'
tRp529
I686
sg2
(g3
(S'S3'
I0
I1
tRp530
(I3
S'|'
NNNI3
I1
I0
tbS'bar'
tRp531
I515
sg2
(g3
(S'S5'
I0
I1
tRp532
(I3
S'|'
NNNI5
I1
I0
tbS'excel'
tRp533
I518
sg2
(g3
(S'S6'
I0
I1
tRp534
(I3
S'|'
NNNI6
I1
I0
tbS'public'
tRp535
I520
sg2
(g3
(S'S3'
I0
I1
tRp536
(I3
S'|'
NNNI3
I1
I0
tbS'bad'
tRp537
I521
sg2
(g3
(S'S10'
I0
I1
tRp538
(I3
S'|'
NNNI10
I1
I0
tbS'eventually'
tRp539
I1606
sg2
(g3
(S'S7'
I0
I1
tRp540
(I3
S'|'
NNNI7
I1
I0
tbS'release'
tRp541
I524
sg2
(g3
(S'S8'
I0
I1
tRp542
(I3
S'|'
NNNI8
I1
I0
tbS'squadron'
tRp543
I526
sg2
(g3
(S'S5'
I0
I1
tRp544
(I3
S'|'
NNNI5
I1
I0
tbS'steal'
tRp545
I527
sg2
(g3
(S'S9'
I0
I1
tRp546
(I3
S'|'
NNNI9
I1
I0
tbS'secretary'
tRp547
I528
sg2
(g3
(S'S7'
I0
I1
tRp548
(I3
S'|'
NNNI7
I1
I0
tbS'decides'
tRp549
I532
sg2
(g3
(S'S6'
I0
I1
tRp550
(I3
S'|'
NNNI6
I1
I0
tbS'resist'
tRp551
I535
sg2
(g3
(S'S15'
I0
I1
tRp552
(I3
S'|'
NNNI15
I1
I0
tbS'brothers-in-law'
tRp553
I538
sg2
(g3
(S'S6'
I0
I1
tRp554
(I3
S'|'
NNNI6
I1
I0
tbS'result'
tRp555
I539
sg2
(g3
(S'S7'
I0
I1
tRp556
(I3
S'|'
NNNI7
I1
I0
tbS'corrupt'
tRp557
I540
sg2
(g3
(S'S9'
I0
I1
tRp558
(I3
S'|'
NNNI9
I1
I0
tbS'miserable'
tRp559
I362
sg2
(g3
(S'S4'
I0
I1
tRp560
(I3
S'|'
NNNI4
I1
I0
tbS'best'
tRp561
I543
sg2
(g3
(S'S4'
I0
I1
tRp562
(I3
S'|'
NNNI4
I1
I0
tbS'said'
tRp563
I545
sg2
(g3
(S'S6'
I0
I1
tRp564
(I3
S'|'
NNNI6
I1
I0
tbS'shaven'
tRp565
I547
sg2
(g3
(S'S4'
I0
I1
tRp566
(I3
S'|'
NNNI4
I1
I0
tbS'away'
tRp567
I549
sg2
(g3
(S'S5'
I0
I1
tRp568
(I3
S'|'
NNNI5
I1
I0
tbS'rings'
tRp569
I550
sg2
(g3
(S'S6'
I0
I1
tRp570
(I3
S'|'
NNNI6
I1
I0
tbS'future'
tRp571
I1375
sg2
(g3
(S'S9'
I0
I1
tRp572
(I3
S'|'
NNNI9
I1
I0
tbS'discovers'
tRp573
I554
sg2
(g3
(S'S9'
I0
I1
tRp574
(I3
S'|'
NNNI9
I1
I0
tbS'hopefully'
tRp575
I1465
sg2
(g3
(S'S2'
I0
I1
tRp576
(I3
S'|'
NNNI2
I1
I0
tbS'92'
tRp577
I557
sg2
(g3
(S'S2'
I0
I1
tRp578
(I3
S'|'
NNNI2
I1
I0
tbS'we'
tRp579
I560
sg2
(g3
(S'S5'
I0
I1
tRp580
(I3
S'|'
NNNI5
I1
I0
tbS'never'
tRp581
I561
sg2
(g3
(S'S4'
I0
I1
tRp582
(I3
S'|'
NNNI4
I1
I0
tbS'vows'
tRp583
I563
sg2
(g3
(S'S2'
I0
I1
tRp584
(I3
S'|'
NNNI2
I1
I0
tbS'wo'
tRp585
I1508
sg2
(g3
(S'S7'
I0
I1
tRp586
(I3
S'|'
NNNI7
I1
I0
tbS'however'
tRp587
I566
sg2
(g3
(S'S2'
I0
I1
tRp588
(I3
S'|'
NNNI2
I1
I0
tbS'ww'
tRp589
I568
sg2
(g3
(S'S8'
I0
I1
tRp590
(I3
S'|'
NNNI8
I1
I0
tbS'succumbs'
tRp591
I571
sg2
(g3
(S'S10'
I0
I1
tRp592
(I3
S'|'
NNNI10
I1
I0
tbS'dedication'
tRp593
I572
sg2
(g3
(S'S6'
I0
I1
tRp594
(I3
S'|'
NNNI6
I1
I0
tbS'cousin'
tRp595
I1263
sg2
(g3
(S'S4'
I0
I1
tRp596
(I3
S'|'
NNNI4
I1
I0
tbS'debt'
tRp597
I574
sg2
(g3
(S'S5'
I0
I1
tRp598
(I3
S'|'
NNNI5
I1
I0
tbS'faced'
tRp599
I576
sg2
(g3
(S'S7'
I0
I1
tRp600
(I3
S'|'
NNNI7
I1
I0
tbS'goddess'
tRp601
I578
sg2
(g3
(S'S8'
I0
I1
tRp602
(I3
S'|'
NNNI8
I1
I0
tbS'accident'
tRp603
I579
sg2
(g3
(S'S7'
I0
I1
tRp604
(I3
S'|'
NNNI7
I1
I0
tbS'disdain'
tRp605
I582
sg2
(g3
(S'S3'
I0
I1
tRp606
(I3
S'|'
NNNI3
I1
I0
tbS'ill'
tRp607
I1602
sg2
(g3
(S'S7'
I0
I1
tRp608
(I3
S'|'
NNNI7
I1
I0
tbS'against'
tRp609
I586
sg2
(g3
(S'S7'
I0
I1
tRp610
(I3
S'|'
NNNI7
I1
I0
tbS'planned'
tRp611
I588
sg2
(g3
(S'S8'
I0
I1
tRp612
(I3
S'|'
NNNI8
I1
I0
tbS'receives'
tRp613
I589
sg2
(g3
(S'S8'
I0
I1
tRp614
(I3
S'|'
NNNI8
I1
I0
tbS'requests'
tRp615
I592
sg2
(g3
(S'S7'
I0
I1
tRp616
(I3
S'|'
NNNI7
I1
I0
tbS'expense'
tRp617
I593
sg2
(g3
(S'S3'
I0
I1
tRp618
(I3
S'|'
NNNI3
I1
I0
tbS'con'
tRp619
I596
sg2
(g3
(S'S10'
I0
I1
tRp620
(I3
S'|'
NNNI10
I1
I0
tbS'presumably'
tRp621
I597
sg2
(g3
(S'S3'
I0
I1
tRp622
(I3
S'|'
NNNI3
I1
I0
tbS'had'
tRp623
I601
sg2
(g3
(S'S9'
I0
I1
tRp624
(I3
S'|'
NNNI9
I1
I0
tbS'gathering'
tRp625
I1381
sg2
(g3
(S'S7'
I0
I1
tRp626
(I3
S'|'
NNNI7
I1
I0
tbS'gypsies'
tRp627
I606
sg2
(g3
(S'S9'
I0
I1
tRp628
(I3
S'|'
NNNI9
I1
I0
tbS'pregnancy'
tRp629
I610
sg2
(g3
(S'S5'
I0
I1
tRp630
(I3
S'|'
NNNI5
I1
I0
tbS'speak'
tRp631
I612
sg2
(g3
(S'S5'
I0
I1
tRp632
(I3
S'|'
NNNI5
I1
I0
tbS'petty'
tRp633
I613
sg2
(g3
(S'S4'
I0
I1
tRp634
(I3
S'|'
NNNI4
I1
I0
tbS'asks'
tRp635
I615
sg2
(g3
(S'S5'
I0
I1
tRp636
(I3
S'|'
NNNI5
I1
I0
tbS'three'
tRp637
I616
sg2
(g3
(S'S4'
I0
I1
tRp638
(I3
S'|'
NNNI4
I1
I0
tbS'been'
tRp639
I617
sg2
(g3
(S'S1'
I0
I1
tRp640
(I3
S'|'
NNNI1
I1
I0
tbS'.'
tRp641
I618
sg2
(g3
(S'S11'
I0
I1
tRp642
(I3
S'|'
NNNI11
I1
I0
tbS'beneficiary'
tRp643
I619
sg2
(g3
(S'S4'
I0
I1
tRp644
(I3
S'|'
NNNI4
I1
I0
tbS'much'
tRp645
I622
sg2
(g3
(S'S9'
I0
I1
tRp646
(I3
S'|'
NNNI9
I1
I0
tbS'communion'
tRp647
I623
sg2
(g3
(S'S8'
I0
I1
tRp648
(I3
S'|'
NNNI8
I1
I0
tbS'interest'
tRp649
I625
sg2
(g3
(S'S12'
I0
I1
tRp650
(I3
S'|'
NNNI12
I1
I0
tbS'miraculously'
tRp651
I626
sg2
(g3
(S'S8'
I0
I1
tRp652
(I3
S'|'
NNNI8
I1
I0
tbS'expected'
tRp653
I627
sg2
(g3
(S'S6'
I0
I1
tRp654
(I3
S'|'
NNNI6
I1
I0
tbS'duties'
tRp655
I631
sg2
(g3
(S'S5'
I0
I1
tRp656
(I3
S'|'
NNNI5
I1
I0
tbS'threw'
tRp657
I1832
sg2
(g3
(S'S4'
I0
I1
tRp658
(I3
S'|'
NNNI4
I1
I0
tbS'life'
tRp659
I633
sg2
(g3
(S'S8'
I0
I1
tRp660
(I3
S'|'
NNNI8
I1
I0
tbS'families'
tRp661
I1845
sg2
(g3
(S'S8'
I0
I1
tRp662
(I3
S'|'
NNNI8
I1
I0
tbS'innocent'
tRp663
I636
sg2
(g3
(S'S10'
I0
I1
tRp664
(I3
S'|'
NNNI10
I1
I0
tbS'prosperous'
tRp665
I637
sg2
(g3
(S'S8'
I0
I1
tRp666
(I3
S'|'
NNNI8
I1
I0
tbS'attacked'
tRp667
I638
sg2
(g3
(S'S5'
I0
I1
tRp668
(I3
S'|'
NNNI5
I1
I0
tbS'drugs'
tRp669
I1856
sg2
(g3
(S'S6'
I0
I1
tRp670
(I3
S'|'
NNNI6
I1
I0
tbS'worker'
tRp671
I641
sg2
(g3
(S'S5'
I0
I1
tRp672
(I3
S'|'
NNNI5
I1
I0
tbS'child'
tRp673
I646
sg2
(g3
(S'S5'
I0
I1
tRp674
(I3
S'|'
NNNI5
I1
I0
tbS'catch'
tRp675
I647
sg2
(g3
(S'S10'
I0
I1
tRp676
(I3
S'|'
NNNI10
I1
I0
tbS'modern-day'
tRp677
I649
sg2
(g3
(S'S4'
I0
I1
tRp678
(I3
S'|'
NNNI4
I1
I0
tbS'save'
tRp679
I650
sg2
(g3
(S'S8'
I0
I1
tRp680
(I3
S'|'
NNNI8
I1
I0
tbS'publicly'
tRp681
I653
sg2
(g3
(S'S10'
I0
I1
tRp682
(I3
S'|'
NNNI10
I1
I0
tbS'celestials'
tRp683
I49
sg2
(g3
(S'S3'
I0
I1
tRp684
(I3
S'|'
NNNI3
I1
I0
tbS'air'
tRp685
I658
sg2
(g3
(S'S4'
I0
I1
tRp686
(I3
S'|'
NNNI4
I1
I0
tbS'near'
tRp687
I76
sg2
(g3
(S'S8'
I0
I1
tRp688
(I3
S'|'
NNNI8
I1
I0
tbS'teachers'
tRp689
I660
sg2
(g3
(S'S5'
I0
I1
tRp690
(I3
S'|'
NNNI5
I1
I0
tbS'voice'
tRp691
I663
sg2
(g3
(S'S1'
I0
I1
tRp692
(I3
S'|'
NNNI1
I1
I0
tbS'k'
tRp693
I664
sg2
(g3
(S'S7'
I0
I1
tRp694
(I3
S'|'
NNNI7
I1
I0
tbS'mistake'
tRp695
I666
sg2
(g3
(S'S5'
I0
I1
tRp696
(I3
S'|'
NNNI5
I1
I0
tbS'seven'
tRp697
I668
sg2
(g3
(S'S9'
I0
I1
tRp698
(I3
S'|'
NNNI9
I1
I0
tbS'economics'
tRp699
I669
sg2
(g3
(S'S6'
I0
I1
tRp700
(I3
S'|'
NNNI6
I1
I0
tbS'played'
tRp701
I671
sg2
(g3
(S'S2'
I0
I1
tRp702
(I3
S'|'
NNNI2
I1
I0
tbS'is'
tRp703
I673
sg2
(g3
(S'S6'
I0
I1
tRp704
(I3
S'|'
NNNI6
I1
I0
tbS'dumped'
tRp705
I674
sg2
(g3
(S'S2'
I0
I1
tRp706
(I3
S'|'
NNNI2
I1
I0
tbS'it'
tRp707
I675
sg2
(g3
(S'S5'
I0
I1
tRp708
(I3
S'|'
NNNI5
I1
I0
tbS'fakes'
tRp709
I676
sg2
(g3
(S'S2'
I0
I1
tRp710
(I3
S'|'
NNNI2
I1
I0
tbS'ii'
tRp711
I677
sg2
(g3
(S'S10'
I0
I1
tRp712
(I3
S'|'
NNNI10
I1
I0
tbS'overpowers'
tRp713
I679
sg2
(g3
(S'S9'
I0
I1
tRp714
(I3
S'|'
NNNI9
I1
I0
tbS'australia'
tRp715
I680
sg2
(g3
(S'S2'
I0
I1
tRp716
(I3
S'|'
NNNI2
I1
I0
tbS'in'
tRp717
I683
sg2
(g3
(S'S2'
I0
I1
tRp718
(I3
S'|'
NNNI2
I1
I0
tbS'if'
tRp719
I685
sg2
(g3
(S'S11'
I0
I1
tRp720
(I3
S'|'
NNNI11
I1
I0
tbS'malefactors'
tRp721
I687
sg2
(g3
(S'S5'
I0
I1
tRp722
(I3
S'|'
NNNI5
I1
I0
tbS'belle'
tRp723
I689
sg2
(g3
(S'S9'
I0
I1
tRp724
(I3
S'|'
NNNI9
I1
I0
tbS'realizing'
tRp725
I690
sg2
(g3
(S'S6'
I0
I1
tRp726
(I3
S'|'
NNNI6
I1
I0
tbS'beside'
tRp727
I692
sg2
(g3
(S'S7'
I0
I1
tRp728
(I3
S'|'
NNNI7
I1
I0
tbS'several'
tRp729
I695
sg2
(g3
(S'S5'
I0
I1
tRp730
(I3
S'|'
NNNI5
I1
I0
tbS'grows'
tRp731
I697
sg2
(g3
(S'S5'
I0
I1
tRp732
(I3
S'|'
NNNI5
I1
I0
tbS'bells'
tRp733
I409
sg2
(g3
(S'S5'
I0
I1
tRp734
(I3
S'|'
NNNI5
I1
I0
tbS'meets'
tRp735
I699
sg2
(g3
(S'S4'
I0
I1
tRp736
(I3
S'|'
NNNI4
I1
I0
tbS'raid'
tRp737
I702
sg2
(g3
(S'S8'
I0
I1
tRp738
(I3
S'|'
NNNI8
I1
I0
tbS'nurtures'
tRp739
I704
sg2
(g3
(S'S4'
I0
I1
tRp740
(I3
S'|'
NNNI4
I1
I0
tbS'evil'
tRp741
I706
sg2
(g3
(S'S4'
I0
I1
tRp742
(I3
S'|'
NNNI4
I1
I0
tbS'hand'
tRp743
I707
sg2
(g3
(S'S7'
I0
I1
tRp744
(I3
S'|'
NNNI7
I1
I0
tbS'fridays'
tRp745
I709
sg2
(g3
(S'S6'
I0
I1
tRp746
(I3
S'|'
NNNI6
I1
I0
tbS'warden'
tRp747
I711
sg2
(g3
(S'S9'
I0
I1
tRp748
(I3
S'|'
NNNI9
I1
I0
tbS'ownership'
tRp749
I712
sg2
(g3
(S'S7'
I0
I1
tRp750
(I3
S'|'
NNNI7
I1
I0
tbS'jealous'
tRp751
I713
sg2
(g3
(S'S8'
I0
I1
tRp752
(I3
S'|'
NNNI8
I1
I0
tbS'thoughts'
tRp753
I694
sg2
(g3
(S'S4'
I0
I1
tRp754
(I3
S'|'
NNNI4
I1
I0
tbS'kept'
tRp755
I717
sg2
(g3
(S'S7'
I0
I1
tRp756
(I3
S'|'
NNNI7
I1
I0
tbS'whereby'
tRp757
I718
sg2
(g3
(S'S4'
I0
I1
tRp758
(I3
S'|'
NNNI4
I1
I0
tbS'1971'
tRp759
I722
sg2
(g3
(S'S7'
I0
I1
tRp760
(I3
S'|'
NNNI7
I1
I0
tbS'contact'
tRp761
I725
sg2
(g3
(S'S8'
I0
I1
tRp762
(I3
S'|'
NNNI8
I1
I0
tbS'greatest'
tRp763
I726
sg2
(g3
(S'S6'
I0
I1
tRp764
(I3
S'|'
NNNI6
I1
I0
tbS'mother'
tRp765
I727
sg2
(g3
(S'S6'
I0
I1
tRp766
(I3
S'|'
NNNI6
I1
I0
tbS'claims'
tRp767
I728
sg2
(g3
(S'S3'
I0
I1
tRp768
(I3
S'|'
NNNI3
I1
I0
tbS'the'
tRp769
I729
sg2
(g3
(S'S10'
I0
I1
tRp770
(I3
S'|'
NNNI10
I1
I0
tbS'background'
tRp771
I782
sg2
(g3
(S'S4'
I0
I1
tRp772
(I3
S'|'
NNNI4
I1
I0
tbS'just'
tRp773
I734
sg2
(g3
(S'S4'
I0
I1
tRp774
(I3
S'|'
NNNI4
I1
I0
tbS'gods'
tRp775
I735
sg2
(g3
(S'S8'
I0
I1
tRp776
(I3
S'|'
NNNI8
I1
I0
tbS'proposes'
tRp777
I517
sg2
(g3
(S'S5'
I0
I1
tRp778
(I3
S'|'
NNNI5
I1
I0
tbS'human'
tRp779
I740
sg2
(g3
(S'S6'
I0
I1
tRp780
(I3
S'|'
NNNI6
I1
I0
tbS'swears'
tRp781
I741
sg2
(g3
(S'S6'
I0
I1
tRp782
(I3
S'|'
NNNI6
I1
I0
tbS'plight'
tRp783
I743
sg2
(g3
(S'S3'
I0
I1
tRp784
(I3
S'|'
NNNI3
I1
I0
tbS'yet'
tRp785
I551
sg2
(g3
(S'S8'
I0
I1
tRp786
(I3
S'|'
NNNI8
I1
I0
tbS'previous'
tRp787
I745
sg2
(g3
(S'S6'
I0
I1
tRp788
(I3
S'|'
NNNI6
I1
I0
tbS'adding'
tRp789
I747
sg2
(g3
(S'S6'
I0
I1
tRp790
(I3
S'|'
NNNI6
I1
I0
tbS'enters'
tRp791
I555
sg2
(g3
(S'S9'
I0
I1
tRp792
(I3
S'|'
NNNI9
I1
I0
tbS'candidate'
tRp793
I749
sg2
(g3
(S'S12'
I0
I1
tRp794
(I3
S'|'
NNNI12
I1
I0
tbS'photographer'
tRp795
I590
sg2
(g3
(S'S9'
I0
I1
tRp796
(I3
S'|'
NNNI9
I1
I0
tbS'character'
tRp797
I752
sg2
(g3
(S'S7'
I0
I1
tRp798
(I3
S'|'
NNNI7
I1
I0
tbS'belongs'
tRp799
I757
sg2
(g3
(S'S8'
I0
I1
tRp800
(I3
S'|'
NNNI8
I1
I0
tbS'teenager'
tRp801
I759
sg2
(g3
(S'S7'
I0
I1
tRp802
(I3
S'|'
NNNI7
I1
I0
tbS'beloved'
tRp803
I760
sg2
(g3
(S'S6'
I0
I1
tRp804
(I3
S'|'
NNNI6
I1
I0
tbS'prison'
tRp805
I761
sg2
(g3
(S'S3'
I0
I1
tRp806
(I3
S'|'
NNNI3
I1
I0
tbS'has'
tRp807
I762
sg2
(g3
(S'S4'
I0
I1
tRp808
(I3
S'|'
NNNI4
I1
I0
tbS'gave'
tRp809
I765
sg2
(g3
(S'S8'
I0
I1
tRp810
(I3
S'|'
NNNI8
I1
I0
tbS'advances'
tRp811
I768
sg2
(g3
(S'S6'
I0
I1
tRp812
(I3
S'|'
NNNI6
I1
I0
tbS'breaks'
tRp813
I769
sg2
(g3
(S'S9'
I0
I1
tRp814
(I3
S'|'
NNNI9
I1
I0
tbS'schooling'
tRp815
I1613
sg2
(g3
(S'S5'
I0
I1
tRp816
(I3
S'|'
NNNI5
I1
I0
tbS'birth'
tRp817
I774
sg2
(g3
(S'S7'
I0
I1
tRp818
(I3
S'|'
NNNI7
I1
I0
tbS'destroy'
tRp819
I1689
sg2
(g3
(S'S6'
I0
I1
tRp820
(I3
S'|'
NNNI6
I1
I0
tbS'dreamt'
tRp821
I776
sg2
(g3
(S'S5'
I0
I1
tRp822
(I3
S'|'
NNNI5
I1
I0
tbS'burns'
tRp823
I777
sg2
(g3
(S'S5'
I0
I1
tRp824
(I3
S'|'
NNNI5
I1
I0
tbS'burnt'
tRp825
I778
sg2
(g3
(S'S6'
I0
I1
tRp826
(I3
S'|'
NNNI6
I1
I0
tbS'desire'
tRp827
I779
sg2
(g3
(S'S10'
I0
I1
tRp828
(I3
S'|'
NNNI10
I1
I0
tbS'performing'
tRp829
I781
sg2
(g3
(S'S5'
I0
I1
tRp830
(I3
S'|'
NNNI5
I1
I0
tbS'steps'
tRp831
I784
sg2
(g3
(S'S7'
I0
I1
tRp832
(I3
S'|'
NNNI7
I1
I0
tbS'officer'
tRp833
I785
sg2
(g3
(S'S9'
I0
I1
tRp834
(I3
S'|'
NNNI9
I1
I0
tbS'governess'
tRp835
I786
sg2
(g3
(S'S5'
I0
I1
tRp836
(I3
S'|'
NNNI5
I1
I0
tbS'right'
tRp837
I790
sg2
(g3
(S'S3'
I0
I1
tRp838
(I3
S'|'
NNNI3
I1
I0
tbS'old'
tRp839
I791
sg2
(g3
(S'S5'
I0
I1
tRp840
(I3
S'|'
NNNI5
I1
I0
tbS'crowd'
tRp841
I792
sg2
(g3
(S'S6'
I0
I1
tRp842
(I3
S'|'
NNNI6
I1
I0
tbS'people'
tRp843
I793
sg2
(g3
(S'S5'
I0
I1
tRp844
(I3
S'|'
NNNI5
I1
I0
tbS'sends'
tRp845
I794
sg2
(g3
(S'S7'
I0
I1
tRp846
(I3
S'|'
NNNI7
I1
I0
tbS'somehow'
tRp847
I883
sg2
(g3
(S'S4'
I0
I1
tRp848
(I3
S'|'
NNNI4
I1
I0
tbS'dead'
tRp849
I798
sg2
(g3
(S'S6'
I0
I1
tRp850
(I3
S'|'
NNNI6
I1
I0
tbS'escape'
tRp851
I801
sg2
(g3
(S'S6'
I0
I1
tRp852
(I3
S'|'
NNNI6
I1
I0
tbS'friend'
tRp853
I1351
sg2
(g3
(S'S5'
I0
I1
tRp854
(I3
S'|'
NNNI5
I1
I0
tbS'clash'
tRp855
I1554
sg2
(g3
(S'S3'
I0
I1
tRp856
(I3
S'|'
NNNI3
I1
I0
tbS'for'
tRp857
I807
sg2
(g3
(S'S10'
I0
I1
tRp858
(I3
S'|'
NNNI10
I1
I0
tbS'everything'
tRp859
I813
sg2
(g3
(S'S7'
I0
I1
tRp860
(I3
S'|'
NNNI7
I1
I0
tbS'beating'
tRp861
I816
sg2
(g3
(S'S4'
I0
I1
tRp862
(I3
S'|'
NNNI4
I1
I0
tbS'bold'
tRp863
I821
sg2
(g3
(S'S4'
I0
I1
tRp864
(I3
S'|'
NNNI4
I1
I0
tbS'bolt'
tRp865
I826
sg2
(g3
(S'S4'
I0
I1
tRp866
(I3
S'|'
NNNI4
I1
I0
tbS'post'
tRp867
I829
sg2
(g3
(S'S7'
I0
I1
tRp868
(I3
S'|'
NNNI7
I1
I0
tbS'attacks'
tRp869
I832
sg2
(g3
(S'S4'
I0
I1
tRp870
(I3
S'|'
NNNI4
I1
I0
tbS'ribs'
tRp871
I833
sg2
(g3
(S'S7'
I0
I1
tRp872
(I3
S'|'
NNNI7
I1
I0
tbS'accepts'
tRp873
I835
sg2
(g3
(S'S6'
I0
I1
tRp874
(I3
S'|'
NNNI6
I1
I0
tbS'commit'
tRp875
I838
sg2
(g3
(S'S7'
I0
I1
tRp876
(I3
S'|'
NNNI7
I1
I0
tbS'dilemma'
tRp877
I841
sg2
(g3
(S'S8'
I0
I1
tRp878
(I3
S'|'
NNNI8
I1
I0
tbS'presence'
tRp879
I842
sg2
(g3
(S'S5'
I0
I1
tRp880
(I3
S'|'
NNNI5
I1
I0
tbS'civil'
tRp881
I843
sg2
(g3
(S'S4'
I0
I1
tRp882
(I3
S'|'
NNNI4
I1
I0
tbS'pays'
tRp883
I844
sg2
(g3
(S'S9'
I0
I1
tRp884
(I3
S'|'
NNNI9
I1
I0
tbS'prisoners'
tRp885
I1233
sg2
(g3
(S'S9'
I0
I1
tRp886
(I3
S'|'
NNNI9
I1
I0
tbS'honeymoon'
tRp887
I1235
sg2
(g3
(S'S10'
I0
I1
tRp888
(I3
S'|'
NNNI10
I1
I0
tbS'profession'
tRp889
I847
sg2
(g3
(S'S10'
I0
I1
tRp890
(I3
S'|'
NNNI10
I1
I0
tbS'forcefully'
tRp891
I330
sg2
(g3
(S'S4'
I0
I1
tRp892
(I3
S'|'
NNNI4
I1
I0
tbS'down'
tRp893
I849
sg2
(g3
(S'S4'
I0
I1
tRp894
(I3
S'|'
NNNI4
I1
I0
tbS'lies'
tRp895
I850
sg2
(g3
(S'S6'
I0
I1
tRp896
(I3
S'|'
NNNI6
I1
I0
tbS'beings'
tRp897
I851
sg2
(g3
(S'S4'
I0
I1
tRp898
(I3
S'|'
NNNI4
I1
I0
tbS'deal'
tRp899
I857
sg2
(g3
(S'S7'
I0
I1
tRp900
(I3
S'|'
NNNI7
I1
I0
tbS'support'
tRp901
I858
sg2
(g3
(S'S10'
I0
I1
tRp902
(I3
S'|'
NNNI10
I1
I0
tbS'constantly'
tRp903
I1323
sg2
(g3
(S'S8'
I0
I1
tRp904
(I3
S'|'
NNNI8
I1
I0
tbS'jealousy'
tRp905
I1325
sg2
(g3
(S'S5'
I0
I1
tRp906
(I3
S'|'
NNNI5
I1
I0
tbS'fight'
tRp907
I863
sg2
(g3
(S'S5'
I0
I1
tRp908
(I3
S'|'
NNNI5
I1
I0
tbS'avail'
tRp909
I1338
sg2
(g3
(S'S5'
I0
I1
tRp910
(I3
S'|'
NNNI5
I1
I0
tbS'stuck'
tRp911
I865
sg2
(g3
(S'S6'
I0
I1
tRp912
(I3
S'|'
NNNI6
I1
I0
tbS'fought'
tRp913
I866
sg2
(g3
(S'S6'
I0
I1
tRp914
(I3
S'|'
NNNI6
I1
I0
tbS'editor'
tRp915
I867
sg2
(g3
(S'S3'
I0
I1
tRp916
(I3
S'|'
NNNI3
I1
I0
tbS'way'
tRp917
I868
sg2
(g3
(S'S5'
I0
I1
tRp918
(I3
S'|'
NNNI5
I1
I0
tbS'rapes'
tRp919
I869
sg2
(g3
(S'S7'
I0
I1
tRp920
(I3
S'|'
NNNI7
I1
I0
tbS'vacated'
tRp921
I870
sg2
(g3
(S'S3'
I0
I1
tRp922
(I3
S'|'
NNNI3
I1
I0
tbS'was'
tRp923
I872
sg2
(g3
(S'S3'
I0
I1
tRp924
(I3
S'|'
NNNI3
I1
I0
tbS'war'
tRp925
I873
sg2
(g3
(S'S5'
I0
I1
tRp926
(I3
S'|'
NNNI5
I1
I0
tbS'happy'
tRp927
I875
sg2
(g3
(S'S6'
I0
I1
tRp928
(I3
S'|'
NNNI6
I1
I0
tbS'starve'
tRp929
I877
sg2
(g3
(S'S4'
I0
I1
tRp930
(I3
S'|'
NNNI4
I1
I0
tbS'head'
tRp931
I1387
sg2
(g3
(S'S4'
I0
I1
tRp932
(I3
S'|'
NNNI4
I1
I0
tbS'form'
tRp933
I880
sg2
(g3
(S'S8'
I0
I1
tRp934
(I3
S'|'
NNNI8
I1
I0
tbS'becoming'
tRp935
I881
sg2
(g3
(S'S10'
I0
I1
tRp936
(I3
S'|'
NNNI10
I1
I0
tbS'mysterious'
tRp937
I1678
sg2
(g3
(S'S5'
I0
I1
tRp938
(I3
S'|'
NNNI5
I1
I0
tbS'uncle'
tRp939
I885
sg2
(g3
(S'S9'
I0
I1
tRp940
(I3
S'|'
NNNI9
I1
I0
tbS'syndicate'
tRp941
I1440
sg2
(g3
(S'S13'
I0
I1
tRp942
(I3
S'|'
NNNI13
I1
I0
tbS'free-spirited'
tRp943
I442
sg2
(g3
(S'S4'
I0
I1
tRp944
(I3
S'|'
NNNI4
I1
I0
tbS'true'
tRp945
I889
sg2
(g3
(S'S6'
I0
I1
tRp946
(I3
S'|'
NNNI6
I1
I0
tbS'builds'
tRp947
I893
sg2
(g3
(S'S6'
I0
I1
tRp948
(I3
S'|'
NNNI6
I1
I0
tbS'inside'
tRp949
I895
sg2
(g3
(S'S7'
I0
I1
tRp950
(I3
S'|'
NNNI7
I1
I0
tbS'bargain'
tRp951
I897
sg2
(g3
(S'S4'
I0
I1
tRp952
(I3
S'|'
NNNI4
I1
I0
tbS'tell'
tRp953
I899
sg2
(g3
(S'S8'
I0
I1
tRp954
(I3
S'|'
NNNI8
I1
I0
tbS'decorate'
tRp955
I900
sg2
(g3
(S'S8'
I0
I1
tRp956
(I3
S'|'
NNNI8
I1
I0
tbS'juvenile'
tRp957
I907
sg2
(g3
(S'S6'
I0
I1
tRp958
(I3
S'|'
NNNI6
I1
I0
tbS'gather'
tRp959
I1679
sg2
(g3
(S'S7'
I0
I1
tRp960
(I3
S'|'
NNNI7
I1
I0
tbS'request'
tRp961
I1428
sg2
(g3
(S'S10'
I0
I1
tRp962
(I3
S'|'
NNNI10
I1
I0
tbS'insistence'
tRp963
I912
sg2
(g3
(S'S8'
I0
I1
tRp964
(I3
S'|'
NNNI8
I1
I0
tbS'evidence'
tRp965
I914
sg2
(g3
(S'S8'
I0
I1
tRp966
(I3
S'|'
NNNI8
I1
I0
tbS'sometime'
tRp967
I917
sg2
(g3
(S'S9'
I0
I1
tRp968
(I3
S'|'
NNNI9
I1
I0
tbS'expertise'
tRp969
I918
sg2
(g3
(S'S8'
I0
I1
tRp970
(I3
S'|'
NNNI8
I1
I0
tbS'promised'
tRp971
I919
sg2
(g3
(S'S9'
I0
I1
tRp972
(I3
S'|'
NNNI9
I1
I0
tbS'adversely'
tRp973
I920
sg2
(g3
(S'S5'
I0
I1
tRp974
(I3
S'|'
NNNI5
I1
I0
tbS'dying'
tRp975
I923
sg2
(g3
(S'S2'
I0
I1
tRp976
(I3
S'|'
NNNI2
I1
I0
tbS'no'
tRp977
I924
sg2
(g3
(S'S7'
I0
I1
tRp978
(I3
S'|'
NNNI7
I1
I0
tbS'whereas'
tRp979
I925
sg2
(g3
(S'S4'
I0
I1
tRp980
(I3
S'|'
NNNI4
I1
I0
tbS'when'
tRp981
I927
sg2
(g3
(S'S6'
I0
I1
tRp982
(I3
S'|'
NNNI6
I1
I0
tbS'handed'
tRp983
I928
sg2
(g3
(S'S7'
I0
I1
tRp984
(I3
S'|'
NNNI7
I1
I0
tbS'reality'
tRp985
I1676
sg2
(g3
(S'S4'
I0
I1
tRp986
(I3
S'|'
NNNI4
I1
I0
tbS'role'
tRp987
I932
sg2
(g3
(S'S6'
I0
I1
tRp988
(I3
S'|'
NNNI6
I1
I0
tbS'papers'
tRp989
I933
sg2
(g3
(S'S4'
I0
I1
tRp990
(I3
S'|'
NNNI4
I1
I0
tbS'test'
tRp991
I934
sg2
(g3
(S'S9'
I0
I1
tRp992
(I3
S'|'
NNNI9
I1
I0
tbS'unwilling'
tRp993
I935
sg2
(g3
(S'S9'
I0
I1
tRp994
(I3
S'|'
NNNI9
I1
I0
tbS'panchayat'
tRp995
I936
sg2
(g3
(S'S7'
I0
I1
tRp996
(I3
S'|'
NNNI7
I1
I0
tbS'picture'
tRp997
I939
sg2
(g3
(S'S10'
I0
I1
tRp998
(I3
S'|'
NNNI10
I1
I0
tbS'permitting'
tRp999
I940
sg2
(g3
(S'S8'
I0
I1
tRp1000
(I3
S'|'
NNNI8
I1
I0
tbS'brothers'
tRp1001
I941
sg2
(g3
(S'S7'
I0
I1
tRp1002
(I3
S'|'
NNNI7
I1
I0
tbS'garland'
tRp1003
I942
sg2
(g3
(S'S4'
I0
I1
tRp1004
(I3
S'|'
NNNI4
I1
I0
tbS'dies'
tRp1005
I943
sg2
(g3
(S'S10'
I0
I1
tRp1006
(I3
S'|'
NNNI10
I1
I0
tbS'convincing'
tRp1007
I944
sg2
(g3
(S'S4'
I0
I1
tRp1008
(I3
S'|'
NNNI4
I1
I0
tbS'fell'
tRp1009
I947
sg2
(g3
(S'S7'
I0
I1
tRp1010
(I3
S'|'
NNNI7
I1
I0
tbS'wounded'
tRp1011
I1434
sg2
(g3
(S'S11'
I0
I1
tRp1012
(I3
S'|'
NNNI11
I1
I0
tbS'authorities'
tRp1013
I949
sg2
(g3
(S'S4'
I0
I1
tRp1014
(I3
S'|'
NNNI4
I1
I0
tbS'died'
tRp1015
I951
sg2
(g3
(S'S7'
I0
I1
tRp1016
(I3
S'|'
NNNI7
I1
I0
tbS'younger'
tRp1017
I954
sg2
(g3
(S'S9'
I0
I1
tRp1018
(I3
S'|'
NNNI9
I1
I0
tbS'happening'
tRp1019
I957
sg2
(g3
(S'S6'
I0
I1
tRp1020
(I3
S'|'
NNNI6
I1
I0
tbS'bullet'
tRp1021
I958
sg2
(g3
(S'S6'
I0
I1
tRp1022
(I3
S'|'
NNNI6
I1
I0
tbS'assume'
tRp1023
I402
sg2
(g3
(S'S8'
I0
I1
tRp1024
(I3
S'|'
NNNI8
I1
I0
tbS'proposed'
tRp1025
I960
sg2
(g3
(S'S6'
I0
I1
tRp1026
(I3
S'|'
NNNI6
I1
I0
tbS'landed'
tRp1027
I962
sg2
(g3
(S'S8'
I0
I1
tRp1028
(I3
S'|'
NNNI8
I1
I0
tbS'together'
tRp1029
I963
sg2
(g3
(S'S9'
I0
I1
tRp1030
(I3
S'|'
NNNI9
I1
I0
tbS'reception'
tRp1031
I966
sg2
(g3
(S'S4'
I0
I1
tRp1032
(I3
S'|'
NNNI4
I1
I0
tbS'time'
tRp1033
I1867
sg2
(g3
(S'S8'
I0
I1
tRp1034
(I3
S'|'
NNNI8
I1
I0
tbS'restored'
tRp1035
I969
sg2
(g3
(S'S5'
I0
I1
tRp1036
(I3
S'|'
NNNI5
I1
I0
tbS'songs'
tRp1037
I1884
sg2
(g3
(S'S9'
I0
I1
tRp1038
(I3
S'|'
NNNI9
I1
I0
tbS'neighbors'
tRp1039
I971
sg2
(g3
(S'S3'
I0
I1
tRp1040
(I3
S'|'
NNNI3
I1
I0
tbS'rob'
tRp1041
I974
sg2
(g3
(S'S5'
I0
I1
tRp1042
(I3
S'|'
NNNI5
I1
I0
tbS'leads'
tRp1043
I976
sg2
(g3
(S'S7'
I0
I1
tRp1044
(I3
S'|'
NNNI7
I1
I0
tbS'manager'
tRp1045
I977
sg2
(g3
(S'S7'
I0
I1
tRp1046
(I3
S'|'
NNNI7
I1
I0
tbS'manages'
tRp1047
I978
sg2
(g3
(S'S3'
I0
I1
tRp1048
(I3
S'|'
NNNI3
I1
I0
tbS'per'
tRp1049
I979
sg2
(g3
(S'S5'
I0
I1
tRp1050
(I3
S'|'
NNNI5
I1
I0
tbS'chair'
tRp1051
I982
sg2
(g3
(S'S7'
I0
I1
tRp1052
(I3
S'|'
NNNI7
I1
I0
tbS'devoted'
tRp1053
I985
sg2
(g3
(S'S7'
I0
I1
tRp1054
(I3
S'|'
NNNI7
I1
I0
tbS'devotee'
tRp1055
I986
sg2
(g3
(S'S7'
I0
I1
tRp1056
(I3
S'|'
NNNI7
I1
I0
tbS'suicide'
tRp1057
I987
sg2
(g3
(S'S3'
I0
I1
tRp1058
(I3
S'|'
NNNI3
I1
I0
tbS'foe'
tRp1059
I988
sg2
(g3
(S'S6'
I0
I1
tRp1060
(I3
S'|'
NNNI6
I1
I0
tbS'father'
tRp1061
I990
sg2
(g3
(S'S7'
I0
I1
tRp1062
(I3
S'|'
NNNI7
I1
I0
tbS'finally'
tRp1063
I993
sg2
(g3
(S'S6'
I0
I1
tRp1064
(I3
S'|'
NNNI6
I1
I0
tbS'bribed'
tRp1065
I140
sg2
(g3
(S'S6'
I0
I1
tRp1066
(I3
S'|'
NNNI6
I1
I0
tbS'terror'
tRp1067
I996
sg2
(g3
(S'S10'
I0
I1
tRp1068
(I3
S'|'
NNNI10
I1
I0
tbS'protective'
tRp1069
I1561
sg2
(g3
(S'S7'
I0
I1
tRp1070
(I3
S'|'
NNNI7
I1
I0
tbS'trouble'
tRp1071
I1006
sg2
(g3
(S'S5'
I0
I1
tRp1072
(I3
S'|'
NNNI5
I1
I0
tbS'exact'
tRp1073
I1007
sg2
(g3
(S'S6'
I0
I1
tRp1074
(I3
S'|'
NNNI6
I1
I0
tbS'clouds'
tRp1075
I1010
sg2
(g3
(S'S3'
I0
I1
tRp1076
(I3
S'|'
NNNI3
I1
I0
tbS'did'
tRp1077
I1012
sg2
(g3
(S'S3'
I0
I1
tRp1078
(I3
S'|'
NNNI3
I1
I0
tbS'die'
tRp1079
I516
sg2
(g3
(S'S7'
I0
I1
tRp1080
(I3
S'|'
NNNI7
I1
I0
tbS'brother'
tRp1081
I1016
sg2
(g3
(S'S5'
I0
I1
tRp1082
(I3
S'|'
NNNI5
I1
I0
tbS'leave'
tRp1083
I655
sg2
(g3
(S'S6'
I0
I1
tRp1084
(I3
S'|'
NNNI6
I1
I0
tbS'solved'
tRp1085
I1018
sg2
(g3
(S'S6'
I0
I1
tRp1086
(I3
S'|'
NNNI6
I1
I0
tbS'settle'
tRp1087
I1019
sg2
(g3
(S'S3'
I0
I1
tRp1088
(I3
S'|'
NNNI3
I1
I0
tbS'guy'
tRp1089
I1021
sg2
(g3
(S'S7'
I0
I1
tRp1090
(I3
S'|'
NNNI7
I1
I0
tbS'unaware'
tRp1091
I1022
sg2
(g3
(S'S7'
I0
I1
tRp1092
(I3
S'|'
NNNI7
I1
I0
tbS'prevent'
tRp1093
I1023
sg2
(g3
(S'S5'
I0
I1
tRp1094
(I3
S'|'
NNNI5
I1
I0
tbS'brave'
tRp1095
I1024
sg2
(g3
(S'S4'
I0
I1
tRp1096
(I3
S'|'
NNNI4
I1
I0
tbS'says'
tRp1097
I1025
sg2
(g3
(S'S6'
I0
I1
tRp1098
(I3
S'|'
NNNI6
I1
I0
tbS'regret'
tRp1099
I1026
sg2
(g3
(S'S9'
I0
I1
tRp1100
(I3
S'|'
NNNI9
I1
I0
tbS'irritates'
tRp1101
I1027
sg2
(g3
(S'S4'
I0
I1
tRp1102
(I3
S'|'
NNNI4
I1
I0
tbS'sign'
tRp1103
I1029
sg2
(g3
(S'S4'
I0
I1
tRp1104
(I3
S'|'
NNNI4
I1
I0
tbS'cost'
tRp1105
I1031
sg2
(g3
(S'S7'
I0
I1
tRp1106
(I3
S'|'
NNNI7
I1
I0
tbS'patient'
tRp1107
I1036
sg2
(g3
(S'S4'
I0
I1
tRp1108
(I3
S'|'
NNNI4
I1
I0
tbS'fear'
tRp1109
I1769
sg2
(g3
(S'S6'
I0
I1
tRp1110
(I3
S'|'
NNNI6
I1
I0
tbS'stands'
tRp1111
I1040
sg2
(g3
(S'S10'
I0
I1
tRp1112
(I3
S'|'
NNNI10
I1
I0
tbS'assistance'
tRp1113
I1043
sg2
(g3
(S'S6'
I0
I1
tRp1114
(I3
S'|'
NNNI6
I1
I0
tbS'shares'
tRp1115
I1044
sg2
(g3
(S'S7'
I0
I1
tRp1116
(I3
S'|'
NNNI7
I1
I0
tbS'uniform'
tRp1117
I1045
sg2
(g3
(S'S7'
I0
I1
tRp1118
(I3
S'|'
NNNI7
I1
I0
tbS'suspect'
tRp1119
I1050
sg2
(g3
(S'S4'
I0
I1
tRp1120
(I3
S'|'
NNNI4
I1
I0
tbS'goes'
tRp1121
I1051
sg2
(g3
(S'S8'
I0
I1
tRp1122
(I3
S'|'
NNNI8
I1
I0
tbS'saluting'
tRp1123
I1052
sg2
(g3
(S'S6'
I0
I1
tRp1124
(I3
S'|'
NNNI6
I1
I0
tbS'filled'
tRp1125
I1054
sg2
(g3
(S'S10'
I0
I1
tRp1126
(I3
S'|'
NNNI10
I1
I0
tbS'supporting'
tRp1127
I1056
sg2
(g3
(S'S6'
I0
I1
tRp1128
(I3
S'|'
NNNI6
I1
I0
tbS'unsure'
tRp1129
I1057
sg2
(g3
(S'S8'
I0
I1
tRp1130
(I3
S'|'
NNNI8
I1
I0
tbS'guardian'
tRp1131
I714
sg2
(g3
(S'S5'
I0
I1
tRp1132
(I3
S'|'
NNNI5
I1
I0
tbS'alone'
tRp1133
I1065
sg2
(g3
(S'S5'
I0
I1
tRp1134
(I3
S'|'
NNNI5
I1
I0
tbS'along'
tRp1135
I1067
sg2
(g3
(S'S7'
I0
I1
tRp1136
(I3
S'|'
NNNI7
I1
I0
tbS'teaches'
tRp1137
I1068
sg2
(g3
(S'S6'
I0
I1
tRp1138
(I3
S'|'
NNNI6
I1
I0
tbS'change'
tRp1139
I1069
sg2
(g3
(S'S3'
I0
I1
tRp1140
(I3
S'|'
NNNI3
I1
I0
tbS'boy'
tRp1141
I1070
sg2
(g3
(S'S6'
I0
I1
tRp1142
(I3
S'|'
NNNI6
I1
I0
tbS'enroll'
tRp1143
I642
sg2
(g3
(S'S7'
I0
I1
tRp1144
(I3
S'|'
NNNI7
I1
I0
tbS'studied'
tRp1145
I1073
sg2
(g3
(S'S6'
I0
I1
tRp1146
(I3
S'|'
NNNI6
I1
I0
tbS'guilty'
tRp1147
I1074
sg2
(g3
(S'S11'
I0
I1
tRp1148
(I3
S'|'
NNNI11
I1
I0
tbS'exemplifies'
tRp1149
I1077
sg2
(g3
(S'S9'
I0
I1
tRp1150
(I3
S'|'
NNNI9
I1
I0
tbS'patriotic'
tRp1151
I1079
sg2
(g3
(S'S5'
I0
I1
tRp1152
(I3
S'|'
NNNI5
I1
I0
tbS'weird'
tRp1153
I1080
sg2
(g3
(S'S7'
I0
I1
tRp1154
(I3
S'|'
NNNI7
I1
I0
tbS'studies'
tRp1155
I720
sg2
(g3
(S'S10'
I0
I1
tRp1156
(I3
S'|'
NNNI10
I1
I0
tbS'regardless'
tRp1157
I742
sg2
(g3
(S'S6'
I0
I1
tRp1158
(I3
S'|'
NNNI6
I1
I0
tbS'prefer'
tRp1159
I1089
sg2
(g3
(S'S7'
I0
I1
tRp1160
(I3
S'|'
NNNI7
I1
I0
tbS'bullock'
tRp1161
I1090
sg2
(g3
(S'S4'
I0
I1
tRp1162
(I3
S'|'
NNNI4
I1
I0
tbS'fake'
tRp1163
I795
sg2
(g3
(S'S6'
I0
I1
tRp1164
(I3
S'|'
NNNI6
I1
I0
tbS'rarely'
tRp1165
I1094
sg2
(g3
(S'S9'
I0
I1
tRp1166
(I3
S'|'
NNNI9
I1
I0
tbS'everybody'
tRp1167
I1096
sg2
(g3
(S'S6'
I0
I1
tRp1168
(I3
S'|'
NNNI6
I1
I0
tbS'wealth'
tRp1169
I1098
sg2
(g3
(S'S5'
I0
I1
tRp1170
(I3
S'|'
NNNI5
I1
I0
tbS'prove'
tRp1171
I1099
sg2
(g3
(S'S5'
I0
I1
tRp1172
(I3
S'|'
NNNI5
I1
I0
tbS'angry'
tRp1173
I1102
sg2
(g3
(S'S5'
I0
I1
tRp1174
(I3
S'|'
NNNI5
I1
I0
tbS'visit'
tRp1175
I1103
sg2
(g3
(S'S6'
I0
I1
tRp1176
(I3
S'|'
NNNI6
I1
I0
tbS'abroad'
tRp1177
I831
sg2
(g3
(S'S9'
I0
I1
tRp1178
(I3
S'|'
NNNI9
I1
I0
tbS'scenarios'
tRp1179
I1105
sg2
(g3
(S'S4'
I0
I1
tRp1180
(I3
S'|'
NNNI4
I1
I0
tbS'live'
tRp1181
I1106
sg2
(g3
(S'S6'
I0
I1
tRp1182
(I3
S'|'
NNNI6
I1
I0
tbS'memory'
tRp1183
I1107
sg2
(g3
(S'S7'
I0
I1
tRp1184
(I3
S'|'
NNNI7
I1
I0
tbS'selects'
tRp1185
I1110
sg2
(g3
(S'S6'
I0
I1
tRp1186
(I3
S'|'
NNNI6
I1
I0
tbS'climax'
tRp1187
I183
sg2
(g3
(S'S6'
I0
I1
tRp1188
(I3
S'|'
NNNI6
I1
I0
tbS'loving'
tRp1189
I1112
sg2
(g3
(S'S12'
I0
I1
tRp1190
(I3
S'|'
NNNI12
I1
I0
tbS'commissioner'
tRp1191
I1113
sg2
(g3
(S'S4'
I0
I1
tRp1192
(I3
S'|'
NNNI4
I1
I0
tbS'club'
tRp1193
I1117
sg2
(g3
(S'S5'
I0
I1
tRp1194
(I3
S'|'
NNNI5
I1
I0
tbS'share'
tRp1195
I1181
sg2
(g3
(S'S4'
I0
I1
tRp1196
(I3
S'|'
NNNI4
I1
I0
tbS'clue'
tRp1197
I1121
sg2
(g3
(S'S6'
I0
I1
tRp1198
(I3
S'|'
NNNI6
I1
I0
tbS'visual'
tRp1199
I1122
sg2
(g3
(S'S6'
I0
I1
tRp1200
(I3
S'|'
NNNI6
I1
I0
tbS'teases'
tRp1201
I964
sg2
(g3
(S'S6'
I0
I1
tRp1202
(I3
S'|'
NNNI6
I1
I0
tbS'effort'
tRp1203
I1126
sg2
(g3
(S'S6'
I0
I1
tRp1204
(I3
S'|'
NNNI6
I1
I0
tbS'valued'
tRp1205
I1129
sg2
(g3
(S'S3'
I0
I1
tRp1206
(I3
S'|'
NNNI3
I1
I0
tbS'car'
tRp1207
I1131
sg2
(g3
(S'S7'
I0
I1
tRp1208
(I3
S'|'
NNNI7
I1
I0
tbS'pretend'
tRp1209
I1133
sg2
(g3
(S'S8'
I0
I1
tRp1210
(I3
S'|'
NNNI8
I1
I0
tbS'believes'
tRp1211
I1134
sg2
(g3
(S'S7'
I0
I1
tRp1212
(I3
S'|'
NNNI7
I1
I0
tbS'incites'
tRp1213
I1135
sg2
(g3
(S'S9'
I0
I1
tRp1214
(I3
S'|'
NNNI9
I1
I0
tbS'incidents'
tRp1215
I1138
sg2
(g3
(S'S3'
I0
I1
tRp1216
(I3
S'|'
NNNI3
I1
I0
tbS'can'
tRp1217
I1139
sg2
(g3
(S'S8'
I0
I1
tRp1218
(I3
S'|'
NNNI8
I1
I0
tbS'woefully'
tRp1219
I1142
sg2
(g3
(S'S6'
I0
I1
tRp1220
(I3
S'|'
NNNI6
I1
I0
tbS'arrive'
tRp1221
I1143
sg2
(g3
(S'S3'
I0
I1
tRp1222
(I3
S'|'
NNNI3
I1
I0
tbS'spy'
tRp1223
I1086
sg2
(g3
(S'S6'
I0
I1
tRp1224
(I3
S'|'
NNNI6
I1
I0
tbS'figure'
tRp1225
I628
sg2
(g3
(S'S5'
I0
I1
tRp1226
(I3
S'|'
NNNI5
I1
I0
tbS'arise'
tRp1227
I190
sg2
(g3
(S'S8'
I0
I1
tRp1228
(I3
S'|'
NNNI8
I1
I0
tbS'confused'
tRp1229
I1149
sg2
(g3
(S'S12'
I0
I1
tRp1230
(I3
S'|'
NNNI12
I1
I0
tbS'millionaires'
tRp1231
I1128
sg2
(g3
(S'S5'
I0
I1
tRp1232
(I3
S'|'
NNNI5
I1
I0
tbS'heard'
tRp1233
I1151
sg2
(g3
(S'S7'
I0
I1
tRp1234
(I3
S'|'
NNNI7
I1
I0
tbS'allowed'
tRp1235
I1153
sg2
(g3
(S'S11'
I0
I1
tRp1236
(I3
S'|'
NNNI11
I1
I0
tbS'governesses'
tRp1237
I1598
sg2
(g3
(S'S5'
I0
I1
tRp1238
(I3
S'|'
NNNI5
I1
I0
tbS'stole'
tRp1239
I1154
sg2
(g3
(S'S1'
I0
I1
tRp1240
(I3
S'|'
NNNI1
I1
I0
tbS'1'
tRp1241
I1160
sg2
(g3
(S'S4'
I0
I1
tRp1242
(I3
S'|'
NNNI4
I1
I0
tbS'till'
tRp1243
I1221
sg2
(g3
(S'S8'
I0
I1
tRp1244
(I3
S'|'
NNNI8
I1
I0
tbS'elephant'
tRp1245
I1166
sg2
(g3
(S'S7'
I0
I1
tRp1246
(I3
S'|'
NNNI7
I1
I0
tbS'adamant'
tRp1247
I1167
sg2
(g3
(S'S4'
I0
I1
tRp1248
(I3
S'|'
NNNI4
I1
I0
tbS'begs'
tRp1249
I1170
sg2
(g3
(S'S7'
I0
I1
tRp1250
(I3
S'|'
NNNI7
I1
I0
tbS'staying'
tRp1251
I1173
sg2
(g3
(S'S3'
I0
I1
tRp1252
(I3
S'|'
NNNI3
I1
I0
tbS'may'
tRp1253
I1865
sg2
(g3
(S'S13'
I0
I1
tRp1254
(I3
S'|'
NNNI13
I1
I0
tbS'granddaughter'
tRp1255
I1177
sg2
(g3
(S'S4'
I0
I1
tRp1256
(I3
S'|'
NNNI4
I1
I0
tbS'spot'
tRp1257
I1178
sg2
(g3
(S'S3'
I0
I1
tRp1258
(I3
S'|'
NNNI3
I1
I0
tbS'maa'
tRp1259
I1305
sg2
(g3
(S'S4'
I0
I1
tRp1260
(I3
S'|'
NNNI4
I1
I0
tbS'date'
tRp1261
I1182
sg2
(g3
(S'S4'
I0
I1
tRp1262
(I3
S'|'
NNNI4
I1
I0
tbS'such'
tRp1263
I1183
sg2
(g3
(S'S6'
I0
I1
tRp1264
(I3
S'|'
NNNI6
I1
I0
tbS'heroes'
tRp1265
I1184
sg2
(g3
(S'S8'
I0
I1
tRp1266
(I3
S'|'
NNNI8
I1
I0
tbS'revealed'
tRp1267
I1186
sg2
(g3
(S'S3'
I0
I1
tRp1268
(I3
S'|'
NNNI3
I1
I0
tbS'man'
tRp1269
I1187
sg2
(g3
(S'S4'
I0
I1
tRp1270
(I3
S'|'
NNNI4
I1
I0
tbS'noun'
tRp1271
I1189
sg2
(g3
(S'S5'
I0
I1
tRp1272
(I3
S'|'
NNNI5
I1
I0
tbS'maybe'
tRp1273
I1191
sg2
(g3
(S'S4'
I0
I1
tRp1274
(I3
S'|'
NNNI4
I1
I0
tbS'jail'
tRp1275
I1196
sg2
(g3
(S'S8'
I0
I1
tRp1276
(I3
S'|'
NNNI8
I1
I0
tbS'garlands'
tRp1277
I1199
sg2
(g3
(S'S4'
I0
I1
tRp1278
(I3
S'|'
NNNI4
I1
I0
tbS'talk'
tRp1279
I1201
sg2
(g3
(S'S5'
I0
I1
tRp1280
(I3
S'|'
NNNI5
I1
I0
tbS'words'
tRp1281
I1469
sg2
(g3
(S'S6'
I0
I1
tRp1282
(I3
S'|'
NNNI6
I1
I0
tbS'indeed'
tRp1283
I1204
sg2
(g3
(S'S5'
I0
I1
tRp1284
(I3
S'|'
NNNI5
I1
I0
tbS'years'
tRp1285
I1208
sg2
(g3
(S'S5'
I0
I1
tRp1286
(I3
S'|'
NNNI5
I1
I0
tbS'brain'
tRp1287
I1473
sg2
(g3
(S'S5'
I0
I1
tRp1288
(I3
S'|'
NNNI5
I1
I0
tbS'deity'
tRp1289
I1215
sg2
(g3
(S'S5'
I0
I1
tRp1290
(I3
S'|'
NNNI5
I1
I0
tbS'still'
tRp1291
I1216
sg2
(g3
(S'S7'
I0
I1
tRp1292
(I3
S'|'
NNNI7
I1
I0
tbS'worship'
tRp1293
I1217
sg2
(g3
(S'S6'
I0
I1
tRp1294
(I3
S'|'
NNNI6
I1
I0
tbS'police'
tRp1295
I1425
sg2
(g3
(S'S8'
I0
I1
tRp1296
(I3
S'|'
NNNI8
I1
I0
tbS'troubles'
tRp1297
I1224
sg2
(g3
(S'S6'
I0
I1
tRp1298
(I3
S'|'
NNNI6
I1
I0
tbS'offers'
tRp1299
I1227
sg2
(g3
(S'S6'
I0
I1
tRp1300
(I3
S'|'
NNNI6
I1
I0
tbS'farmer'
tRp1301
I1230
sg2
(g3
(S'S11'
I0
I1
tRp1302
(I3
S'|'
NNNI11
I1
I0
tbS'coordinated'
tRp1303
I1231
sg2
(g3
(S'S8'
I0
I1
tRp1304
(I3
S'|'
NNNI8
I1
I0
tbS'troubled'
tRp1305
I1587
sg2
(g3
(S'S5'
I0
I1
tRp1306
(I3
S'|'
NNNI5
I1
I0
tbS'views'
tRp1307
I1238
sg2
(g3
(S'S10'
I0
I1
tRp1308
(I3
S'|'
NNNI10
I1
I0
tbS'devastated'
tRp1309
I1239
sg2
(g3
(S'S6'
I0
I1
tRp1310
(I3
S'|'
NNNI6
I1
I0
tbS'nation'
tRp1311
I1241
sg2
(g3
(S'S8'
I0
I1
tRp1312
(I3
S'|'
NNNI8
I1
I0
tbS'concocts'
tRp1313
I1242
sg2
(g3
(S'S12'
I0
I1
tRp1314
(I3
S'|'
NNNI12
I1
I0
tbS'overpowering'
tRp1315
I1657
sg2
(g3
(S'S7'
I0
I1
tRp1316
(I3
S'|'
NNNI7
I1
I0
tbS'wealthy'
tRp1317
I1244
sg2
(g3
(S'S3'
I0
I1
tRp1318
(I3
S'|'
NNNI3
I1
I0
tbS'not'
tRp1319
I1245
sg2
(g3
(S'S7'
I0
I1
tRp1320
(I3
S'|'
NNNI7
I1
I0
tbS'in-laws'
tRp1321
I1247
sg2
(g3
(S'S3'
I0
I1
tRp1322
(I3
S'|'
NNNI3
I1
I0
tbS'now'
tRp1323
I1248
sg2
(g3
(S'S6'
I0
I1
tRp1324
(I3
S'|'
NNNI6
I1
I0
tbS'killed'
tRp1325
I1249
sg2
(g3
(S'S7'
I0
I1
tRp1326
(I3
S'|'
NNNI7
I1
I0
tbS'execute'
tRp1327
I1251
sg2
(g3
(S'S10'
I0
I1
tRp1328
(I3
S'|'
NNNI10
I1
I0
tbS'inheriting'
tRp1329
I1252
sg2
(g3
(S'S7'
I0
I1
tRp1330
(I3
S'|'
NNNI7
I1
I0
tbS'servant'
tRp1331
I1254
sg2
(g3
(S'S7'
I0
I1
tRp1332
(I3
S'|'
NNNI7
I1
I0
tbS'corners'
tRp1333
I1255
sg2
(g3
(S'S8'
I0
I1
tRp1334
(I3
S'|'
NNNI8
I1
I0
tbS'careless'
tRp1335
I1259
sg2
(g3
(S'S7'
I0
I1
tRp1336
(I3
S'|'
NNNI7
I1
I0
tbS'realise'
tRp1337
I1751
sg2
(g3
(S'S8'
I0
I1
tRp1338
(I3
S'|'
NNNI8
I1
I0
tbS'retrieve'
tRp1339
I1789
sg2
(g3
(S'S5'
I0
I1
tRp1340
(I3
S'|'
NNNI5
I1
I0
tbS'fired'
tRp1341
I1265
sg2
(g3
(S'S9'
I0
I1
tRp1342
(I3
S'|'
NNNI9
I1
I0
tbS'directing'
tRp1343
I1267
sg2
(g3
(S'S6'
I0
I1
tRp1344
(I3
S'|'
NNNI6
I1
I0
tbS'hitmen'
tRp1345
I1269
sg2
(g3
(S'S5'
I0
I1
tRp1346
(I3
S'|'
NNNI5
I1
I0
tbS'fires'
tRp1347
I1272
sg2
(g3
(S'S4'
I0
I1
tRp1348
(I3
S'|'
NNNI4
I1
I0
tbS'year'
tRp1349
I1274
sg2
(g3
(S'S4'
I0
I1
tRp1350
(I3
S'|'
NNNI4
I1
I0
tbS'girl'
tRp1351
I1275
sg2
(g3
(S'S9'
I0
I1
tRp1352
(I3
S'|'
NNNI9
I1
I0
tbS'obsession'
tRp1353
I1276
sg2
(g3
(S'S6'
I0
I1
tRp1354
(I3
S'|'
NNNI6
I1
I0
tbS'living'
tRp1355
I1279
sg2
(g3
(S'S5'
I0
I1
tRp1356
(I3
S'|'
NNNI5
I1
I0
tbS'shown'
tRp1357
I1280
sg2
(g3
(S'S10'
I0
I1
tRp1358
(I3
S'|'
NNNI10
I1
I0
tbS'infuriated'
tRp1359
I1879
sg2
(g3
(S'S11'
I0
I1
tRp1360
(I3
S'|'
NNNI11
I1
I0
tbS'furthermore'
tRp1361
I1283
sg2
(g3
(S'S7'
I0
I1
tRp1362
(I3
S'|'
NNNI7
I1
I0
tbS'factory'
tRp1363
I1039
sg2
(g3
(S'S7'
I0
I1
tRp1364
(I3
S'|'
NNNI7
I1
I0
tbS'cancels'
tRp1365
I1285
sg2
(g3
(S'S7'
I0
I1
tRp1366
(I3
S'|'
NNNI7
I1
I0
tbS'looking'
tRp1367
I1286
sg2
(g3
(S'S9'
I0
I1
tRp1368
(I3
S'|'
NNNI9
I1
I0
tbS'attracted'
tRp1369
I1287
sg2
(g3
(S'S6'
I0
I1
tRp1370
(I3
S'|'
NNNI6
I1
I0
tbS'opener'
tRp1371
I822
sg2
(g3
(S'S9'
I0
I1
tRp1372
(I3
S'|'
NNNI9
I1
I0
tbS'ambushing'
tRp1373
I1290
sg2
(g3
(S'S8'
I0
I1
tRp1374
(I3
S'|'
NNNI8
I1
I0
tbS'busybody'
tRp1375
I1292
sg2
(g3
(S'S7'
I0
I1
tRp1376
(I3
S'|'
NNNI7
I1
I0
tbS'earlier'
tRp1377
I1293
sg2
(g3
(S'S8'
I0
I1
tRp1378
(I3
S'|'
NNNI8
I1
I0
tbS'palatial'
tRp1379
I1295
sg2
(g3
(S'S4'
I0
I1
tRp1380
(I3
S'|'
NNNI4
I1
I0
tbS'cart'
tRp1381
I1297
sg2
(g3
(S'S6'
I0
I1
tRp1382
(I3
S'|'
NNNI6
I1
I0
tbS'conman'
tRp1383
I1301
sg2
(g3
(S'S10'
I0
I1
tRp1384
(I3
S'|'
NNNI10
I1
I0
tbS'skillfully'
tRp1385
I1302
sg2
(g3
(S'S10'
I0
I1
tRp1386
(I3
S'|'
NNNI10
I1
I0
tbS'inevitable'
tRp1387
I135
sg2
(g3
(S'S4'
I0
I1
tRp1388
(I3
S'|'
NNNI4
I1
I0
tbS'care'
tRp1389
I1304
sg2
(g3
(S'S7'
I0
I1
tRp1390
(I3
S'|'
NNNI7
I1
I0
tbS'advance'
tRp1391
I148
sg2
(g3
(S'S4'
I0
I1
tRp1392
(I3
S'|'
NNNI4
I1
I0
tbS'pune'
tRp1393
I1306
sg2
(g3
(S'S9'
I0
I1
tRp1394
(I3
S'|'
NNNI9
I1
I0
tbS'surgeries'
tRp1395
I828
sg2
(g3
(S'S6'
I0
I1
tRp1396
(I3
S'|'
NNNI6
I1
I0
tbS'honest'
tRp1397
I1312
sg2
(g3
(S'S4'
I0
I1
tRp1398
(I3
S'|'
NNNI4
I1
I0
tbS'turn'
tRp1399
I198
sg2
(g3
(S'S11'
I0
I1
tRp1400
(I3
S'|'
NNNI11
I1
I0
tbS'butterflies'
tRp1401
I1314
sg2
(g3
(S'S5'
I0
I1
tRp1402
(I3
S'|'
NNNI5
I1
I0
tbS'place'
tRp1403
I1316
sg2
(g3
(S'S10'
I0
I1
tRp1404
(I3
S'|'
NNNI10
I1
I0
tbS'camerawork'
tRp1405
I820
sg2
(g3
(S'S5'
I0
I1
tRp1406
(I3
S'|'
NNNI5
I1
I0
tbS'widow'
tRp1407
I1485
sg2
(g3
(S'S9'
I0
I1
tRp1408
(I3
S'|'
NNNI9
I1
I0
tbS'childhood'
tRp1409
I1319
sg2
(g3
(S'S5'
I0
I1
tRp1410
(I3
S'|'
NNNI5
I1
I0
tbS'first'
tRp1411
I1320
sg2
(g3
(S'S5'
I0
I1
tRp1412
(I3
S'|'
NNNI5
I1
I0
tbS'blind'
tRp1413
I1321
sg2
(g3
(S'S6'
I0
I1
tRp1414
(I3
S'|'
NNNI6
I1
I0
tbS'flying'
tRp1415
I859
sg2
(g3
(S'S3'
I0
I1
tRp1416
(I3
S'|'
NNNI3
I1
I0
tbS'one'
tRp1417
I1329
sg2
(g3
(S'S4'
I0
I1
tRp1418
(I3
S'|'
NNNI4
I1
I0
tbS'fast'
tRp1419
I862
sg2
(g3
(S'S4'
I0
I1
tRp1420
(I3
S'|'
NNNI4
I1
I0
tbS'ring'
tRp1421
I1334
sg2
(g3
(S'S4'
I0
I1
tRp1422
(I3
S'|'
NNNI4
I1
I0
tbS'open'
tRp1423
I1336
sg2
(g3
(S'S8'
I0
I1
tRp1424
(I3
S'|'
NNNI8
I1
I0
tbS'engineer'
tRp1425
I1337
sg2
(g3
(S'S4'
I0
I1
tRp1426
(I3
S'|'
NNNI4
I1
I0
tbS'city'
tRp1427
I763
sg2
(g3
(S'S5'
I0
I1
tRp1428
(I3
S'|'
NNNI5
I1
I0
tbS'given'
tRp1429
I1339
sg2
(g3
(S'S6'
I0
I1
tRp1430
(I3
S'|'
NNNI6
I1
I0
tbS'caught'
tRp1431
I1341
sg2
(g3
(S'S3'
I0
I1
tRp1432
(I3
S'|'
NNNI3
I1
I0
tbS'iaf'
tRp1433
I1342
sg2
(g3
(S'S10'
I0
I1
tRp1434
(I3
S'|'
NNNI10
I1
I0
tbS'reconciles'
tRp1435
I1345
sg2
(g3
(S'S6'
I0
I1
tRp1436
(I3
S'|'
NNNI6
I1
I0
tbS'anyone'
tRp1437
I1202
sg2
(g3
(S'S7'
I0
I1
tRp1438
(I3
S'|'
NNNI7
I1
I0
tbS'returns'
tRp1439
I1348
sg2
(g3
(S'S8'
I0
I1
tRp1440
(I3
S'|'
NNNI8
I1
I0
tbS'twenties'
tRp1441
I1349
sg2
(g3
(S'S8'
I0
I1
tRp1442
(I3
S'|'
NNNI8
I1
I0
tbS'speaking'
tRp1443
I424
sg2
(g3
(S'S5'
I0
I1
tRp1444
(I3
S'|'
NNNI5
I1
I0
tbS'gives'
tRp1445
I1352
sg2
(g3
(S'S4'
I0
I1
tRp1446
(I3
S'|'
NNNI4
I1
I0
tbS'eyes'
tRp1447
I1354
sg2
(g3
(S'S6'
I0
I1
tRp1448
(I3
S'|'
NNNI6
I1
I0
tbS'mostly'
tRp1449
I1358
sg2
(g3
(S'S4'
I0
I1
tRp1450
(I3
S'|'
NNNI4
I1
I0
tbS'that'
tRp1451
I1359
sg2
(g3
(S'S6'
I0
I1
tRp1452
(I3
S'|'
NNNI6
I1
I0
tbS'snatch'
tRp1453
I1361
sg2
(g3
(S'S4'
I0
I1
tRp1454
(I3
S'|'
NNNI4
I1
I0
tbS'alas'
tRp1455
I1363
sg2
(g3
(S'S4'
I0
I1
tRp1456
(I3
S'|'
NNNI4
I1
I0
tbS'than'
tRp1457
I1366
sg2
(g3
(S'S5'
I0
I1
tRp1458
(I3
S'|'
NNNI5
I1
I0
tbS'royal'
tRp1459
I1367
sg2
(g3
(S'S9'
I0
I1
tRp1460
(I3
S'|'
NNNI9
I1
I0
tbS'petrified'
tRp1461
I499
sg2
(g3
(S'S2'
I0
I1
tRp1462
(I3
S'|'
NNNI2
I1
I0
tbS'12'
tRp1463
I1369
sg2
(g3
(S'S9'
I0
I1
tRp1464
(I3
S'|'
NNNI9
I1
I0
tbS'goddesses'
tRp1465
I1370
sg2
(g3
(S'S14'
I0
I1
tRp1466
(I3
S'|'
NNNI14
I1
I0
tbS'indo-pakistani'
tRp1467
I1371
sg2
(g3
(S'S5'
I0
I1
tRp1468
(I3
S'|'
NNNI5
I1
I0
tbS'rival'
tRp1469
I1373
sg2
(g3
(S'S9'
I0
I1
tRp1470
(I3
S'|'
NNNI9
I1
I0
tbS'protected'
tRp1471
I553
sg2
(g3
(S'S3'
I0
I1
tRp1472
(I3
S'|'
NNNI3
I1
I0
tbS'and'
tRp1473
I1380
sg2
(g3
(S'S6'
I0
I1
tRp1474
(I3
S'|'
NNNI6
I1
I0
tbS'buries'
tRp1475
I604
sg2
(g3
(S'S7'
I0
I1
tRp1476
(I3
S'|'
NNNI7
I1
I0
tbS'illness'
tRp1477
I1382
sg2
(g3
(S'S5'
I0
I1
tRp1478
(I3
S'|'
NNNI5
I1
I0
tbS'angel'
tRp1479
I1384
sg2
(g3
(S'S8'
I0
I1
tRp1480
(I3
S'|'
NNNI8
I1
I0
tbS'argument'
tRp1481
I643
sg2
(g3
(S'S11'
I0
I1
tRp1482
(I3
S'|'
NNNI11
I1
I0
tbS'prestigious'
tRp1483
I1389
sg2
(g3
(S'S6'
I0
I1
tRp1484
(I3
S'|'
NNNI6
I1
I0
tbS'devraj'
tRp1485
I670
sg2
(g3
(S'S5'
I0
I1
tRp1486
(I3
S'|'
NNNI5
I1
I0
tbS'anger'
tRp1487
I1392
sg2
(g3
(S'S8'
I0
I1
tRp1488
(I3
S'|'
NNNI8
I1
I0
tbS'pursuing'
tRp1489
I1393
sg2
(g3
(S'S9'
I0
I1
tRp1490
(I3
S'|'
NNNI9
I1
I0
tbS'confesses'
tRp1491
I1394
sg2
(g3
(S'S3'
I0
I1
tRp1492
(I3
S'|'
NNNI3
I1
I0
tbS'any'
tRp1493
I1395
sg2
(g3
(S'S11'
I0
I1
tRp1494
(I3
S'|'
NNNI11
I1
I0
tbS'fashionable'
tRp1495
I1398
sg2
(g3
(S'S9'
I0
I1
tRp1496
(I3
S'|'
NNNI9
I1
I0
tbS'foreigner'
tRp1497
I1400
sg2
(g3
(S'S7'
I0
I1
tRp1498
(I3
S'|'
NNNI7
I1
I0
tbS'shocked'
tRp1499
I1402
sg2
(g3
(S'S4'
I0
I1
tRp1500
(I3
S'|'
NNNI4
I1
I0
tbS'note'
tRp1501
I1403
sg2
(g3
(S'S7'
I0
I1
tRp1502
(I3
S'|'
NNNI7
I1
I0
tbS'intends'
tRp1503
I753
sg2
(g3
(S'S9'
I0
I1
tRp1504
(I3
S'|'
NNNI9
I1
I0
tbS'potential'
tRp1505
I1405
sg2
(g3
(S'S4'
I0
I1
tRp1506
(I3
S'|'
NNNI4
I1
I0
tbS'take'
tRp1507
I1406
sg2
(g3
(S'S7'
I0
I1
tRp1508
(I3
S'|'
NNNI7
I1
I0
tbS'wanting'
tRp1509
I775
sg2
(g3
(S'S5'
I0
I1
tRp1510
(I3
S'|'
NNNI5
I1
I0
tbS'begin'
tRp1511
I1414
sg2
(g3
(S'S6'
I0
I1
tRp1512
(I3
S'|'
NNNI6
I1
I0
tbS'normal'
tRp1513
I1417
sg2
(g3
(S'S5'
I0
I1
tRp1514
(I3
S'|'
NNNI5
I1
I0
tbS'enter'
tRp1515
I1418
sg2
(g3
(S'S5'
I0
I1
tRp1516
(I3
S'|'
NNNI5
I1
I0
tbS'falls'
tRp1517
I1419
sg2
(g3
(S'S8'
I0
I1
tRp1518
(I3
S'|'
NNNI8
I1
I0
tbS'formulae'
tRp1519
I1423
sg2
(g3
(S'S7'
I0
I1
tRp1520
(I3
S'|'
NNNI7
I1
I0
tbS'forever'
tRp1521
I1426
sg2
(g3
(S'S5'
I0
I1
tRp1522
(I3
S'|'
NNNI5
I1
I0
tbS'later'
tRp1523
I908
sg2
(g3
(S'S5'
I0
I1
tRp1524
(I3
S'|'
NNNI5
I1
I0
tbS'drive'
tRp1525
I1429
sg2
(g3
(S'S4'
I0
I1
tRp1526
(I3
S'|'
NNNI4
I1
I0
tbS'ways'
tRp1527
I1505
sg2
(g3
(S'S5'
I0
I1
tRp1528
(I3
S'|'
NNNI5
I1
I0
tbS'greed'
tRp1529
I1433
sg2
(g3
(S'S6'
I0
I1
tRp1530
(I3
S'|'
NNNI6
I1
I0
tbS'senior'
tRp1531
I1435
sg2
(g3
(S'S4'
I0
I1
tRp1532
(I3
S'|'
NNNI4
I1
I0
tbS'badi'
tRp1533
I1436
sg2
(g3
(S'S4'
I0
I1
tRp1534
(I3
S'|'
NNNI4
I1
I0
tbS'shop'
tRp1535
I972
sg2
(g3
(S'S4'
I0
I1
tRp1536
(I3
S'|'
NNNI4
I1
I0
tbS'shot'
tRp1537
I981
sg2
(g3
(S'S6'
I0
I1
tRp1538
(I3
S'|'
NNNI6
I1
I0
tbS'ground'
tRp1539
I1445
sg2
(g3
(S'S11'
I0
I1
tRp1540
(I3
S'|'
NNNI11
I1
I0
tbS'whereabouts'
tRp1541
I1507
sg2
(g3
(S'S6'
I0
I1
tRp1542
(I3
S'|'
NNNI6
I1
I0
tbS'enough'
tRp1543
I1449
sg2
(g3
(S'S5'
I0
I1
tRp1544
(I3
S'|'
NNNI5
I1
I0
tbS'crime'
tRp1545
I584
sg2
(g3
(S'S5'
I0
I1
tRp1546
(I3
S'|'
NNNI5
I1
I0
tbS'prays'
tRp1547
I1401
sg2
(g3
(S'S4'
I0
I1
tRp1548
(I3
S'|'
NNNI4
I1
I0
tbS'only'
tRp1549
I1451
sg2
(g3
(S'S5'
I0
I1
tRp1550
(I3
S'|'
NNNI5
I1
I0
tbS'going'
tRp1551
I1452
sg2
(g3
(S'S6'
I0
I1
tRp1552
(I3
S'|'
NNNI6
I1
I0
tbS'uncles'
tRp1553
I1460
sg2
(g3
(S'S3'
I0
I1
tRp1554
(I3
S'|'
NNNI3
I1
I0
tbS'get'
tRp1555
I1461
sg2
(g3
(S'S7'
I0
I1
tRp1556
(I3
S'|'
NNNI7
I1
I0
tbS'hostage'
tRp1557
I1462
sg2
(g3
(S'S9'
I0
I1
tRp1558
(I3
S'|'
NNNI9
I1
I0
tbS'assistant'
tRp1559
I1463
sg2
(g3
(S'S7'
I0
I1
tRp1560
(I3
S'|'
NNNI7
I1
I0
tbS'begging'
tRp1561
I1466
sg2
(g3
(S'S5'
I0
I1
tRp1562
(I3
S'|'
NNNI5
I1
I0
tbS'truly'
tRp1563
I1185
sg2
(g3
(S'S7'
I0
I1
tRp1564
(I3
S'|'
NNNI7
I1
I0
tbS'killers'
tRp1565
I1468
sg2
(g3
(S'S10'
I0
I1
tRp1566
(I3
S'|'
NNNI10
I1
I0
tbS'womanizing'
tRp1567
I1471
sg2
(g3
(S'S12'
I0
I1
tRp1568
(I3
S'|'
NNNI12
I1
I0
tbS'middle-class'
tRp1569
I1476
sg2
(g3
(S'S5'
I0
I1
tRp1570
(I3
S'|'
NNNI5
I1
I0
tbS'where'
tRp1571
I1308
sg2
(g3
(S'S7'
I0
I1
tRp1572
(I3
S'|'
NNNI7
I1
I0
tbS'husband'
tRp1573
I1484
sg2
(g3
(S'S7'
I0
I1
tRp1574
(I3
S'|'
NNNI7
I1
I0
tbS'reveals'
tRp1575
I1486
sg2
(g3
(S'S9'
I0
I1
tRp1576
(I3
S'|'
NNNI9
I1
I0
tbS'committed'
tRp1577
I1490
sg2
(g3
(S'S8'
I0
I1
tRp1578
(I3
S'|'
NNNI8
I1
I0
tbS'relative'
tRp1579
I1493
sg2
(g3
(S'S8'
I0
I1
tRp1580
(I3
S'|'
NNNI8
I1
I0
tbS'gangster'
tRp1581
I1494
sg2
(g3
(S'S6'
I0
I1
tRp1582
(I3
S'|'
NNNI6
I1
I0
tbS'namely'
tRp1583
I1495
sg2
(g3
(S'S8'
I0
I1
tRp1584
(I3
S'|'
NNNI8
I1
I0
tbS'actively'
tRp1585
I1496
sg2
(g3
(S'S7'
I0
I1
tRp1586
(I3
S'|'
NNNI7
I1
I0
tbS'college'
tRp1587
I1497
sg2
(g3
(S'S9'
I0
I1
tRp1588
(I3
S'|'
NNNI9
I1
I0
tbS'apologies'
tRp1589
I289
sg2
(g3
(S'S6'
I0
I1
tRp1590
(I3
S'|'
NNNI6
I1
I0
tbS'stigma'
tRp1591
I1499
sg2
(g3
(S'S7'
I0
I1
tRp1592
(I3
S'|'
NNNI7
I1
I0
tbS'stepson'
tRp1593
I1500
sg2
(g3
(S'S7'
I0
I1
tRp1594
(I3
S'|'
NNNI7
I1
I0
tbS'concern'
tRp1595
I1501
sg2
(g3
(S'S8'
I0
I1
tRp1596
(I3
S'|'
NNNI8
I1
I0
tbS'suspects'
tRp1597
I1503
sg2
(g3
(S'S8'
I0
I1
tRp1598
(I3
S'|'
NNNI8
I1
I0
tbS'managing'
tRp1599
I1432
sg2
(g3
(S'S7'
I0
I1
tRp1600
(I3
S'|'
NNNI7
I1
I0
tbS'weapons'
tRp1601
I1446
sg2
(g3
(S'S6'
I0
I1
tRp1602
(I3
S'|'
NNNI6
I1
I0
tbS'behind'
tRp1603
I382
sg2
(g3
(S'S7'
I0
I1
tRp1604
(I3
S'|'
NNNI7
I1
I0
tbS'between'
tRp1605
I1512
sg2
(g3
(S'S5'
I0
I1
tRp1606
(I3
S'|'
NNNI5
I1
I0
tbS'teens'
tRp1607
I1472
sg2
(g3
(S'S6'
I0
I1
tRp1608
(I3
S'|'
NNNI6
I1
I0
tbS'across'
tRp1609
I1515
sg2
(g3
(S'S4'
I0
I1
tRp1610
(I3
S'|'
NNNI4
I1
I0
tbS'jobs'
tRp1611
I1519
sg2
(g3
(S'S6'
I0
I1
tRp1612
(I3
S'|'
NNNI6
I1
I0
tbS'parent'
tRp1613
I1520
sg2
(g3
(S'S2'
I0
I1
tRp1614
(I3
S'|'
NNNI2
I1
I0
tbS'25'
tRp1615
I1260
sg2
(g3
(S'S11'
I0
I1
tRp1616
(I3
S'|'
NNNI11
I1
I0
tbS'inseparable'
tRp1617
I1524
sg2
(g3
(S'S7'
I0
I1
tRp1618
(I3
S'|'
NNNI7
I1
I0
tbS'killing'
tRp1619
I1525
sg2
(g3
(S'S4'
I0
I1
tRp1620
(I3
S'|'
NNNI4
I1
I0
tbS'come'
tRp1621
I1529
sg2
(g3
(S'S6'
I0
I1
tRp1622
(I3
S'|'
NNNI6
I1
I0
tbS'tutors'
tRp1623
I81
sg2
(g3
(S'S8'
I0
I1
tRp1624
(I3
S'|'
NNNI8
I1
I0
tbS'newfound'
tRp1625
I1538
sg2
(g3
(S'S11'
I0
I1
tRp1626
(I3
S'|'
NNNI11
I1
I0
tbS'reluctantly'
tRp1627
I1539
sg2
(g3
(S'S5'
I0
I1
tRp1628
(I3
S'|'
NNNI5
I1
I0
tbS'comes'
tRp1629
I1542
sg2
(g3
(S'S4'
I0
I1
tRp1630
(I3
S'|'
NNNI4
I1
I0
tbS'duty'
tRp1631
I1543
sg2
(g3
(S'S5'
I0
I1
tRp1632
(I3
S'|'
NNNI5
I1
I0
tbS'among'
tRp1633
I1544
sg2
(g3
(S'S5'
I0
I1
tRp1634
(I3
S'|'
NNNI5
I1
I0
tbS'color'
tRp1635
I1545
sg2
(g3
(S'S8'
I0
I1
tRp1636
(I3
S'|'
NNNI8
I1
I0
tbS'promises'
tRp1637
I1548
sg2
(g3
(S'S1'
I0
I1
tRp1638
(I3
S'|'
NNNI1
I1
I0
tbS','
tRp1639
I1549
sg2
(g3
(S'S4'
I0
I1
tRp1640
(I3
S'|'
NNNI4
I1
I0
tbS'twin'
tRp1641
I1551
sg2
(g3
(S'S8'
I0
I1
tRp1642
(I3
S'|'
NNNI8
I1
I0
tbS'learning'
tRp1643
I1552
sg2
(g3
(S'S8'
I0
I1
tRp1644
(I3
S'|'
NNNI8
I1
I0
tbS'moreover'
tRp1645
I1555
sg2
(g3
(S'S11'
I0
I1
tRp1646
(I3
S'|'
NNNI11
I1
I0
tbS'charismatic'
tRp1647
I1300
sg2
(g3
(S'S7'
I0
I1
tRp1648
(I3
S'|'
NNNI7
I1
I0
tbS'custody'
tRp1649
I1558
sg2
(g3
(S'S12'
I0
I1
tRp1650
(I3
S'|'
NNNI12
I1
I0
tbS'narcissistic'
tRp1651
I1559
sg2
(g3
(S'S6'
I0
I1
tRp1652
(I3
S'|'
NNNI6
I1
I0
tbS'caring'
tRp1653
I1560
sg2
(g3
(S'S8'
I0
I1
tRp1654
(I3
S'|'
NNNI8
I1
I0
tbS'vacation'
tRp1655
I1564
sg2
(g3
(S'S7'
I0
I1
tRp1656
(I3
S'|'
NNNI7
I1
I0
tbS'motives'
tRp1657
I1568
sg2
(g3
(S'S5'
I0
I1
tRp1658
(I3
S'|'
NNNI5
I1
I0
tbS'wants'
tRp1659
I1571
sg2
(g3
(S'S9'
I0
I1
tRp1660
(I3
S'|'
NNNI9
I1
I0
tbS'graveyard'
tRp1661
I1574
sg2
(g3
(S'S6'
I0
I1
tRp1662
(I3
S'|'
NNNI6
I1
I0
tbS'robbed'
tRp1663
I1575
sg2
(g3
(S'S7'
I0
I1
tRp1664
(I3
S'|'
NNNI7
I1
I0
tbS'observe'
tRp1665
I1578
sg2
(g3
(S'S8'
I0
I1
tRp1666
(I3
S'|'
NNNI8
I1
I0
tbS'minister'
tRp1667
I1579
sg2
(g3
(S'S8'
I0
I1
tRp1668
(I3
S'|'
NNNI8
I1
I0
tbS'hardcore'
tRp1669
I1581
sg2
(g3
(S'S6'
I0
I1
tRp1670
(I3
S'|'
NNNI6
I1
I0
tbS'spirit'
tRp1671
I507
sg2
(g3
(S'S5'
I0
I1
tRp1672
(I3
S'|'
NNNI5
I1
I0
tbS'those'
tRp1673
I1585
sg2
(g3
(S'S5'
I0
I1
tRp1674
(I3
S'|'
NNNI5
I1
I0
tbS'pilot'
tRp1675
I1586
sg2
(g3
(S'S5'
I0
I1
tRp1676
(I3
S'|'
NNNI5
I1
I0
tbS'these'
tRp1677
I51
sg2
(g3
(S'S10'
I0
I1
tRp1678
(I3
S'|'
NNNI10
I1
I0
tbS'apologises'
tRp1679
I1597
sg2
(g3
(S'S4'
I0
I1
tRp1680
(I3
S'|'
NNNI4
I1
I0
tbS'many'
tRp1681
I1534
sg2
(g3
(S'S9'
I0
I1
tRp1682
(I3
S'|'
NNNI9
I1
I0
tbS'newspaper'
tRp1683
I1599
sg2
(g3
(S'S13'
I0
I1
tRp1684
(I3
S'|'
NNNI13
I1
I0
tbS'investigating'
tRp1685
I95
sg2
(g3
(S'S8'
I0
I1
tRp1686
(I3
S'|'
NNNI8
I1
I0
tbS'slapping'
tRp1687
I1601
sg2
(g3
(S'S9'
I0
I1
tRp1688
(I3
S'|'
NNNI9
I1
I0
tbS'colleague'
tRp1689
I475
sg2
(g3
(S'S9'
I0
I1
tRp1690
(I3
S'|'
NNNI9
I1
I0
tbS'alcoholic'
tRp1691
I133
sg2
(g3
(S'S7'
I0
I1
tRp1692
(I3
S'|'
NNNI7
I1
I0
tbS'engaged'
tRp1693
I150
sg2
(g3
(S'S6'
I0
I1
tRp1694
(I3
S'|'
NNNI6
I1
I0
tbS'strain'
tRp1695
I1611
sg2
(g3
(S'S7'
I0
I1
tRp1696
(I3
S'|'
NNNI7
I1
I0
tbS'someone'
tRp1697
I285
sg2
(g3
(S'S6'
I0
I1
tRp1698
(I3
S'|'
NNNI6
I1
I0
tbS'return'
tRp1699
I414
sg2
(g3
(S'S8'
I0
I1
tRp1700
(I3
S'|'
NNNI8
I1
I0
tbS'property'
tRp1701
I1616
sg2
(g3
(S'S5'
I0
I1
tRp1702
(I3
S'|'
NNNI5
I1
I0
tbS'worry'
tRp1703
I1617
sg2
(g3
(S'S9'
I0
I1
tRp1704
(I3
S'|'
NNNI9
I1
I0
tbS'different'
tRp1705
I1620
sg2
(g3
(S'S5'
I0
I1
tRp1706
(I3
S'|'
NNNI5
I1
I0
tbS'harsh'
tRp1707
I1621
sg2
(g3
(S'S6'
I0
I1
tRp1708
(I3
S'|'
NNNI6
I1
I0
tbS'doctor'
tRp1709
I1622
sg2
(g3
(S'S9'
I0
I1
tRp1710
(I3
S'|'
NNNI9
I1
I0
tbS'threatens'
tRp1711
I1623
sg2
(g3
(S'S7'
I0
I1
tRp1712
(I3
S'|'
NNNI7
I1
I0
tbS'granted'
tRp1713
I1624
sg2
(g3
(S'S4'
I0
I1
tRp1714
(I3
S'|'
NNNI4
I1
I0
tbS'same'
tRp1715
I1627
sg2
(g3
(S'S12'
I0
I1
tRp1716
(I3
S'|'
NNNI12
I1
I0
tbS'triumphantly'
tRp1717
I1629
sg2
(g3
(S'S4'
I0
I1
tRp1718
(I3
S'|'
NNNI4
I1
I0
tbS'buys'
tRp1719
I272
sg2
(g3
(S'S6'
I0
I1
tRp1720
(I3
S'|'
NNNI6
I1
I0
tbS'ladies'
tRp1721
I1777
sg2
(g3
(S'S6'
I0
I1
tRp1722
(I3
S'|'
NNNI6
I1
I0
tbS'driver'
tRp1723
I1583
sg2
(g3
(S'S6'
I0
I1
tRp1724
(I3
S'|'
NNNI6
I1
I0
tbS'drives'
tRp1725
I1638
sg2
(g3
(S'S8'
I0
I1
tRp1726
(I3
S'|'
NNNI8
I1
I0
tbS'director'
tRp1727
I336
sg2
(g3
(S'S9'
I0
I1
tRp1728
(I3
S'|'
NNNI9
I1
I0
tbS'diversion'
tRp1729
I1640
sg2
(g3
(S'S10'
I0
I1
tRp1730
(I3
S'|'
NNNI10
I1
I0
tbS'one-by-one'
tRp1731
I1641
sg2
(g3
(S'S3'
I0
I1
tRp1732
(I3
S'|'
NNNI3
I1
I0
tbS'two'
tRp1733
I789
sg2
(g3
(S'S7'
I0
I1
tRp1734
(I3
S'|'
NNNI7
I1
I0
tbS'pradesh'
tRp1735
I1645
sg2
(g3
(S'S8'
I0
I1
tRp1736
(I3
S'|'
NNNI8
I1
I0
tbS'mentally'
tRp1737
I1646
sg2
(g3
(S'S7'
I0
I1
tRp1738
(I3
S'|'
NNNI7
I1
I0
tbS'one-man'
tRp1739
I1648
sg2
(g3
(S'S7'
I0
I1
tRp1740
(I3
S'|'
NNNI7
I1
I0
tbS'longing'
tRp1741
I1649
sg2
(g3
(S'S8'
I0
I1
tRp1742
(I3
S'|'
NNNI8
I1
I0
tbS'supports'
tRp1743
I1289
sg2
(g3
(S'S5'
I0
I1
tRp1744
(I3
S'|'
NNNI5
I1
I0
tbS'floor'
tRp1745
I1654
sg2
(g3
(S'S7'
I0
I1
tRp1746
(I3
S'|'
NNNI7
I1
I0
tbS'without'
tRp1747
I431
sg2
(g3
(S'S6'
I0
I1
tRp1748
(I3
S'|'
NNNI6
I1
I0
tbS'relief'
tRp1749
I1658
sg2
(g3
(S'S5'
I0
I1
tRp1750
(I3
S'|'
NNNI5
I1
I0
tbS'model'
tRp1751
I1661
sg2
(g3
(S'S6'
I0
I1
tRp1752
(I3
S'|'
NNNI6
I1
I0
tbS'bodies'
tRp1753
I1664
sg2
(g3
(S'S11'
I0
I1
tRp1754
(I3
S'|'
NNNI11
I1
I0
tbS'scholarship'
tRp1755
I464
sg2
(g3
(S'S8'
I0
I1
tRp1756
(I3
S'|'
NNNI8
I1
I0
tbS'desolate'
tRp1757
I1666
sg2
(g3
(S'S5'
I0
I1
tRp1758
(I3
S'|'
NNNI5
I1
I0
tbS'being'
tRp1759
I1667
sg2
(g3
(S'S8'
I0
I1
tRp1760
(I3
S'|'
NNNI8
I1
I0
tbS'captures'
tRp1761
I1030
sg2
(g3
(S'S4'
I0
I1
tRp1762
(I3
S'|'
NNNI4
I1
I0
tbS'rest'
tRp1763
I506
sg2
(g3
(S'S4'
I0
I1
tRp1764
(I3
S'|'
NNNI4
I1
I0
tbS'kill'
tRp1765
I525
sg2
(g3
(S'S8'
I0
I1
tRp1766
(I3
S'|'
NNNI8
I1
I0
tbS'captured'
tRp1767
I575
sg2
(g3
(S'S5'
I0
I1
tRp1768
(I3
S'|'
NNNI5
I1
I0
tbS'death'
tRp1769
I1680
sg2
(g3
(S'S9'
I0
I1
tRp1770
(I3
S'|'
NNNI9
I1
I0
tbS'treatment'
tRp1771
I632
sg2
(g3
(S'S4'
I0
I1
tRp1772
(I3
S'|'
NNNI4
I1
I0
tbS'real'
tRp1773
I1691
sg2
(g3
(S'S6'
I0
I1
tRp1774
(I3
S'|'
NNNI6
I1
I0
tbS'around'
tRp1775
I1692
sg2
(g3
(S'S5'
I0
I1
tRp1776
(I3
S'|'
NNNI5
I1
I0
tbS'kills'
tRp1777
I1693
sg2
(g3
(S'S5'
I0
I1
tRp1778
(I3
S'|'
NNNI5
I1
I0
tbS'early'
tRp1779
I1695
sg2
(g3
(S'S13'
I0
I1
tRp1780
(I3
S'|'
NNNI13
I1
I0
tbS'compassionate'
tRp1781
I1015
sg2
(g3
(S'S3'
I0
I1
tRp1782
(I3
S'|'
NNNI3
I1
I0
tbS'mom'
tRp1783
I733
sg2
(g3
(S'S5'
I0
I1
tRp1784
(I3
S'|'
NNNI5
I1
I0
tbS'world'
tRp1785
I732
sg2
(g3
(S'S8'
I0
I1
tRp1786
(I3
S'|'
NNNI8
I1
I0
tbS'accepted'
tRp1787
I1219
sg2
(g3
(S'S7'
I0
I1
tRp1788
(I3
S'|'
NNNI7
I1
I0
tbS'fortune'
tRp1789
I1704
sg2
(g3
(S'S6'
I0
I1
tRp1790
(I3
S'|'
NNNI6
I1
I0
tbS'oxygen'
tRp1791
I280
sg2
(g3
(S'S4'
I0
I1
tRp1792
(I3
S'|'
NNNI4
I1
I0
tbS'clad'
tRp1793
I1707
sg2
(g3
(S'S8'
I0
I1
tRp1794
(I3
S'|'
NNNI8
I1
I0
tbS'conducts'
tRp1795
I1708
sg2
(g3
(S'S7'
I0
I1
tRp1796
(I3
S'|'
NNNI7
I1
I0
tbS'miracle'
tRp1797
I1709
sg2
(g3
(S'S9'
I0
I1
tRp1798
(I3
S'|'
NNNI9
I1
I0
tbS'lightning'
tRp1799
I802
sg2
(g3
(S'S6'
I0
I1
tRp1800
(I3
S'|'
NNNI6
I1
I0
tbS'making'
tRp1801
I1064
sg2
(g3
(S'S14'
I0
I1
tRp1802
(I3
S'|'
NNNI14
I1
I0
tbS'superintendent'
tRp1803
I1720
sg2
(g3
(S'S7'
I0
I1
tRp1804
(I3
S'|'
NNNI7
I1
I0
tbS'exposed'
tRp1805
I1721
sg2
(g3
(S'S9'
I0
I1
tRp1806
(I3
S'|'
NNNI9
I1
I0
tbS'sequences'
tRp1807
I1553
sg2
(g3
(S'S7'
I0
I1
tRp1808
(I3
S'|'
NNNI7
I1
I0
tbS'exposes'
tRp1809
I1727
sg2
(g3
(S'S4'
I0
I1
tRp1810
(I3
S'|'
NNNI4
I1
I0
tbS'rage'
tRp1811
I1822
sg2
(g3
(S'S6'
I0
I1
tRp1812
(I3
S'|'
NNNI6
I1
I0
tbS'divine'
tRp1813
I1732
sg2
(g3
(S'S6'
I0
I1
tRp1814
(I3
S'|'
NNNI6
I1
I0
tbS'thinks'
tRp1815
I929
sg2
(g3
(S'S6'
I0
I1
tRp1816
(I3
S'|'
NNNI6
I1
I0
tbS'deputy'
tRp1817
I1735
sg2
(g3
(S'S8'
I0
I1
tRp1818
(I3
S'|'
NNNI8
I1
I0
tbS'provided'
tRp1819
I1736
sg2
(g3
(S'S7'
I0
I1
tRp1820
(I3
S'|'
NNNI7
I1
I0
tbS'gelling'
tRp1821
I1738
sg2
(g3
(S'S8'
I0
I1
tRp1822
(I3
S'|'
NNNI8
I1
I0
tbS'recorded'
tRp1823
I1740
sg2
(g3
(S'S5'
I0
I1
tRp1824
(I3
S'|'
NNNI5
I1
I0
tbS'stops'
tRp1825
I1741
sg2
(g3
(S'S9'
I0
I1
tRp1826
(I3
S'|'
NNNI9
I1
I0
tbS'considers'
tRp1827
I1557
sg2
(g3
(S'S8'
I0
I1
tRp1828
(I3
S'|'
NNNI8
I1
I0
tbS'banglore'
tRp1829
I1745
sg2
(g3
(S'S6'
I0
I1
tRp1830
(I3
S'|'
NNNI6
I1
I0
tbS'hustle'
tRp1831
I1749
sg2
(g3
(S'S8'
I0
I1
tRp1832
(I3
S'|'
NNNI8
I1
I0
tbS'destroys'
tRp1833
I1750
sg2
(g3
(S'S5'
I0
I1
tRp1834
(I3
S'|'
NNNI5
I1
I0
tbS'power'
tRp1835
I930
sg2
(g3
(S'S7'
I0
I1
tRp1836
(I3
S'|'
NNNI7
I1
I0
tbS'notable'
tRp1837
I1754
sg2
(g3
(S'S2'
I0
I1
tRp1838
(I3
S'|'
NNNI2
I1
I0
tbS'on'
tRp1839
I1759
sg2
(g3
(S'S7'
I0
I1
tRp1840
(I3
S'|'
NNNI7
I1
I0
tbS'central'
tRp1841
I1761
sg2
(g3
(S'S7'
I0
I1
tRp1842
(I3
S'|'
NNNI7
I1
I0
tbS'darshan'
tRp1843
I1763
sg2
(g3
(S'S4'
I0
I1
tRp1844
(I3
S'|'
NNNI4
I1
I0
tbS'jeep'
tRp1845
I1765
sg2
(g3
(S'S2'
I0
I1
tRp1846
(I3
S'|'
NNNI2
I1
I0
tbS'of'
tRp1847
I1766
sg2
(g3
(S'S8'
I0
I1
tRp1848
(I3
S'|'
NNNI8
I1
I0
tbS'favorite'
tRp1849
I1767
sg2
(g3
(S'S5'
I0
I1
tRp1850
(I3
S'|'
NNNI5
I1
I0
tbS'tumor'
tRp1851
I1768
sg2
(g3
(S'S5'
I0
I1
tRp1852
(I3
S'|'
NNNI5
I1
I0
tbS'stand'
tRp1853
I1771
sg2
(g3
(S'S3'
I0
I1
tRp1854
(I3
S'|'
NNNI3
I1
I0
tbS'act'
tRp1855
I1772
sg2
(g3
(S'S8'
I0
I1
tRp1856
(I3
S'|'
NNNI8
I1
I0
tbS'sadistic'
tRp1857
I1773
sg2
(g3
(S'S8'
I0
I1
tRp1858
(I3
S'|'
NNNI8
I1
I0
tbS'deranged'
tRp1859
I1774
sg2
(g3
(S'S2'
I0
I1
tRp1860
(I3
S'|'
NNNI2
I1
I0
tbS'or'
tRp1861
I1775
sg2
(g3
(S'S4'
I0
I1
tRp1862
(I3
S'|'
NNNI4
I1
I0
tbS'road'
tRp1863
I1776
sg2
(g3
(S'S7'
I0
I1
tRp1864
(I3
S'|'
NNNI7
I1
I0
tbS'quietly'
tRp1865
I1207
sg2
(g3
(S'S5'
I0
I1
tRp1866
(I3
S'|'
NNNI5
I1
I0
tbS'lands'
tRp1867
I1778
sg2
(g3
(S'S8'
I0
I1
tRp1868
(I3
S'|'
NNNI8
I1
I0
tbS'protests'
tRp1869
I1779
sg2
(g3
(S'S7'
I0
I1
tRp1870
(I3
S'|'
NNNI7
I1
I0
tbS'burning'
tRp1871
I1781
sg2
(g3
(S'S11'
I0
I1
tRp1872
(I3
S'|'
NNNI11
I1
I0
tbS'accumulates'
tRp1873
I1783
sg2
(g3
(S'S7'
I0
I1
tRp1874
(I3
S'|'
NNNI7
I1
I0
tbS'widower'
tRp1875
I1262
sg2
(g3
(S'S6'
I0
I1
tRp1876
(I3
S'|'
NNNI6
I1
I0
tbS'heated'
tRp1877
I1788
sg2
(g3
(S'S6'
I0
I1
tRp1878
(I3
S'|'
NNNI6
I1
I0
tbS'annoys'
tRp1879
I1790
sg2
(g3
(S'S3'
I0
I1
tRp1880
(I3
S'|'
NNNI3
I1
I0
tbS'her'
tRp1881
I1793
sg2
(g3
(S'S8'
I0
I1
tRp1882
(I3
S'|'
NNNI8
I1
I0
tbS'strictly'
tRp1883
I1796
sg2
(g3
(S'S5'
I0
I1
tRp1884
(I3
S'|'
NNNI5
I1
I0
tbS'there'
tRp1885
I1797
sg2
(g3
(S'S6'
I0
I1
tRp1886
(I3
S'|'
NNNI6
I1
I0
tbS'strict'
tRp1887
I1340
sg2
(g3
(S'S3'
I0
I1
tRp1888
(I3
S'|'
NNNI3
I1
I0
tbS'lot'
tRp1889
I1800
sg2
(g3
(S'S7'
I0
I1
tRp1890
(I3
S'|'
NNNI7
I1
I0
tbS'assumes'
tRp1891
I1801
sg2
(g3
(S'S8'
I0
I1
tRp1892
(I3
S'|'
NNNI8
I1
I0
tbS'pretends'
tRp1893
I1802
sg2
(g3
(S'S8'
I0
I1
tRp1894
(I3
S'|'
NNNI8
I1
I0
tbS'survives'
tRp1895
I1804
sg2
(g3
(S'S6'
I0
I1
tRp1896
(I3
S'|'
NNNI6
I1
I0
tbS'tycoon'
tRp1897
I1805
sg2
(g3
(S'S8'
I0
I1
tRp1898
(I3
S'|'
NNNI8
I1
I0
tbS'complete'
tRp1899
I1806
sg2
(g3
(S'S7'
I0
I1
tRp1900
(I3
S'|'
NNNI7
I1
I0
tbS'strikes'
tRp1901
I1807
sg2
(g3
(S'S8'
I0
I1
tRp1902
(I3
S'|'
NNNI8
I1
I0
tbS'survived'
tRp1903
I1811
sg2
(g3
(S'S6'
I0
I1
tRp1904
(I3
S'|'
NNNI6
I1
I0
tbS'trying'
tRp1905
I1813
sg2
(g3
(S'S4'
I0
I1
tRp1906
(I3
S'|'
NNNI4
I1
I0
tbS'with'
tRp1907
I1814
sg2
(g3
(S'S6'
I0
I1
tRp1908
(I3
S'|'
NNNI6
I1
I0
tbS'buying'
tRp1909
I1815
sg2
(g3
(S'S7'
I0
I1
tRp1910
(I3
S'|'
NNNI7
I1
I0
tbS'cheated'
tRp1911
I249
sg2
(g3
(S'S6'
I0
I1
tRp1912
(I3
S'|'
NNNI6
I1
I0
tbS'abused'
tRp1913
I1817
sg2
(g3
(S'S8'
I0
I1
tRp1914
(I3
S'|'
NNNI8
I1
I0
tbS'arranged'
tRp1915
I1819
sg2
(g3
(S'S11'
I0
I1
tRp1916
(I3
S'|'
NNNI11
I1
I0
tbS'celebrating'
tRp1917
I1442
sg2
(g3
(S'S4'
I0
I1
tRp1918
(I3
S'|'
NNNI4
I1
I0
tbS'ruse'
tRp1919
I1826
sg2
(g3
(S'S8'
I0
I1
tRp1920
(I3
S'|'
NNNI8
I1
I0
tbS'arranges'
tRp1921
I1510
sg2
(g3
(S'S5'
I0
I1
tRp1922
(I3
S'|'
NNNI5
I1
I0
tbS'agree'
tRp1923
I1833
sg2
(g3
(S'S8'
I0
I1
tRp1924
(I3
S'|'
NNNI8
I1
I0
tbS'escaping'
tRp1925
I541
sg2
(g3
(S'S6'
I0
I1
tRp1926
(I3
S'|'
NNNI6
I1
I0
tbS'fright'
tRp1927
I1835
sg2
(g3
(S'S8'
I0
I1
tRp1928
(I3
S'|'
NNNI8
I1
I0
tbS'frighten'
tRp1929
I1837
sg2
(g3
(S'S3'
I0
I1
tRp1930
(I3
S'|'
NNNI3
I1
I0
tbS'cbi'
tRp1931
I1572
sg2
(g3
(S'S6'
I0
I1
tRp1932
(I3
S'|'
NNNI6
I1
I0
tbS'fellow'
tRp1933
I1582
sg2
(g3
(S'S2'
I0
I1
tRp1934
(I3
S'|'
NNNI2
I1
I0
tbS'as'
tRp1935
I1592
sg2
(g3
(S'S2'
I0
I1
tRp1936
(I3
S'|'
NNNI2
I1
I0
tbS'at'
tRp1937
I1844
sg2
(g3
(S'S4'
I0
I1
tRp1938
(I3
S'|'
NNNI4
I1
I0
tbS'deed'
tRp1939
I1846
sg2
(g3
(S'S4'
I0
I1
tRp1940
(I3
S'|'
NNNI4
I1
I0
tbS'film'
tRp1941
I1849
sg2
(g3
(S'S5'
I0
I1
tRp1942
(I3
S'|'
NNNI5
I1
I0
tbS'again'
tRp1943
I1850
sg2
(g3
(S'S4'
I0
I1
tRp1944
(I3
S'|'
NNNI4
I1
I0
tbS'poor'
tRp1945
I1861
sg2
(g3
(S'S8'
I0
I1
tRp1946
(I3
S'|'
NNNI8
I1
I0
tbS'separate'
tRp1947
I1739
sg2
(g3
(S'S8'
I0
I1
tRp1948
(I3
S'|'
NNNI8
I1
I0
tbS'enrolled'
tRp1949
I220
sg2
(g3
(S'S8'
I0
I1
tRp1950
(I3
S'|'
NNNI8
I1
I0
tbS'includes'
tRp1951
I1758
sg2
(g3
(S'S9'
I0
I1
tRp1952
(I3
S'|'
NNNI9
I1
I0
tbS'important'
tRp1953
I1870
sg2
(g3
(S'S7'
I0
I1
tRp1954
(I3
S'|'
NNNI7
I1
I0
tbS'bullets'
tRp1955
I1871
sg2
(g3
(S'S8'
I0
I1
tRp1956
(I3
S'|'
NNNI8
I1
I0
tbS'included'
tRp1957
I1873
sg2
(g3
(S'S8'
I0
I1
tRp1958
(I3
S'|'
NNNI8
I1
I0
tbS'building'
tRp1959
I1875
sg2
(g3
(S'S5'
I0
I1
tRp1960
(I3
S'|'
NNNI5
I1
I0
tbS'calls'
tRp1961
I1820
sg2
(g3
(S'S4'
I0
I1
tRp1962
(I3
S'|'
NNNI4
I1
I0
tbS'wife'
tRp1963
I1878
sg2
(g3
(S'S7'
I0
I1
tRp1964
(I3
S'|'
NNNI7
I1
I0
tbS'rescues'
tRp1965
I1881
sg2
(g3
(S'S5'
I0
I1
tRp1966
(I3
S'|'
NNNI5
I1
I0
tbS'joins'
tRp1967
I1885
sg2
(g3
(S'S9'
I0
I1
tRp1968
(I3
S'|'
NNNI9
I1
I0
tbS'represent'
tRp1969
I0
sg2
(g3
(S'S3'
I0
I1
tRp1970
(I3
S'|'
NNNI3
I1
I0
tbS'all'
tRp1971
I1
sg2
(g3
(S'S8'
I0
I1
tRp1972
(I3
S'|'
NNNI8
I1
I0
tbS'consider'
tRp1973
I2
sg2
(g3
(S'S8'
I0
I1
tRp1974
(I3
S'|'
NNNI8
I1
I0
tbS'pointing'
tRp1975
I3
sg2
(g3
(S'S5'
I0
I1
tRp1976
(I3
S'|'
NNNI5
I1
I0
tbS'month'
tRp1977
I5
sg2
(g3
(S'S7'
I0
I1
tRp1978
(I3
S'|'
NNNI7
I1
I0
tbS'welfare'
tRp1979
I8
sg2
(g3
(S'S6'
I0
I1
tRp1980
(I3
S'|'
NNNI6
I1
I0
tbS'follow'
tRp1981
I10
sg2
(g3
(S'S8'
I0
I1
tRp1982
(I3
S'|'
NNNI8
I1
I0
tbS'children'
tRp1983
I13
sg2
(g3
(S'S9'
I0
I1
tRp1984
(I3
S'|'
NNNI9
I1
I0
tbS'apartment'
tRp1985
I16
sg2
(g3
(S'S2'
I0
I1
tRp1986
(I3
S'|'
NNNI2
I1
I0
tbS'tt'
tRp1987
I18
sg2
(g3
(S'S7'
I0
I1
tRp1988
(I3
S'|'
NNNI7
I1
I0
tbS'removal'
tRp1989
I19
sg2
(g3
(S'S2'
I0
I1
tRp1990
(I3
S'|'
NNNI2
I1
I0
tbS'to'
tRp1991
I20
sg2
(g3
(S'S7'
I0
I1
tRp1992
(I3
S'|'
NNNI7
I1
I0
tbS'hideout'
tRp1993
I165
sg2
(g3
(S'S10'
I0
I1
tRp1994
(I3
S'|'
NNNI10
I1
I0
tbS'activities'
tRp1995
I29
sg2
(g3
(S'S5'
I0
I1
tRp1996
(I3
S'|'
NNNI5
I1
I0
tbS'woman'
tRp1997
I30
sg2
(g3
(S'S5'
I0
I1
tRp1998
(I3
S'|'
NNNI5
I1
I0
tbS'worse'
tRp1999
I31
sg2
(g3
(S'S12'
I0
I1
tRp2000
(I3
S'|'
NNNI12
I1
I0
tbS'confidential'
tRp2001
I32
sg2
(g3
(S'S4'
I0
I1
tRp2002
(I3
S'|'
NNNI4
I1
I0
tbS'song'
tRp2003
I33
sg2
(g3
(S'S4'
I0
I1
tRp2004
(I3
S'|'
NNNI4
I1
I0
tbS'very'
tRp2005
I34
sg2
(g3
(S'S4'
I0
I1
tRp2006
(I3
S'|'
NNNI4
I1
I0
tbS'sons'
tRp2007
I35
sg2
(g3
(S'S6'
I0
I1
tRp2008
(I3
S'|'
NNNI6
I1
I0
tbS'decide'
tRp2009
I37
sg2
(g3
(S'S4'
I0
I1
tRp2010
(I3
S'|'
NNNI4
I1
I0
tbS'fall'
tRp2011
I38
sg2
(g3
(S'S5'
I0
I1
tRp2012
(I3
S'|'
NNNI5
I1
I0
tbS'awful'
tRp2013
I39
sg2
(g3
(S'S9'
I0
I1
tRp2014
(I3
S'|'
NNNI9
I1
I0
tbS'condition'
tRp2015
I42
sg2
(g3
(S'S6'
I0
I1
tRp2016
(I3
S'|'
NNNI6
I1
I0
tbS'heaven'
tRp2017
I44
sg2
(g3
(S'S6'
I0
I1
tRp2018
(I3
S'|'
NNNI6
I1
I0
tbS'joined'
tRp2019
I50
sg2
(g3
(S'S4'
I0
I1
tRp2020
(I3
S'|'
NNNI4
I1
I0
tbS'sang'
tRp2021
I312
sg2
(g3
(S'S5'
I0
I1
tRp2022
(I3
S'|'
NNNI5
I1
I0
tbS'small'
tRp2023
I52
sg2
(g3
(S'S10'
I0
I1
tRp2024
(I3
S'|'
NNNI10
I1
I0
tbS'biological'
tRp2025
I53
sg2
(g3
(S'S9'
I0
I1
tRp2026
(I3
S'|'
NNNI9
I1
I0
tbS'mig-21bis'
tRp2027
I57
sg2
(g3
(S'S7'
I0
I1
tRp2028
(I3
S'|'
NNNI7
I1
I0
tbS'streets'
tRp2029
I60
sg2
(g3
(S'S4'
I0
I1
tRp2030
(I3
S'|'
NNNI4
I1
I0
tbS'past'
tRp2031
I62
sg2
(g3
(S'S6'
I0
I1
tRp2032
(I3
S'|'
NNNI6
I1
I0
tbS'lawyer'
tRp2033
I65
sg2
(g3
(S'S7'
I0
I1
tRp2034
(I3
S'|'
NNNI7
I1
I0
tbS'further'
tRp2035
I417
sg2
(g3
(S'S4'
I0
I1
tRp2036
(I3
S'|'
NNNI4
I1
I0
tbS'what'
tRp2037
I69
sg2
(g3
(S'S9'
I0
I1
tRp2038
(I3
S'|'
NNNI9
I1
I0
tbS'witnessed'
tRp2039
I70
sg2
(g3
(S'S11'
I0
I1
tRp2040
(I3
S'|'
NNNI11
I1
I0
tbS'short-lived'
tRp2041
I71
sg2
(g3
(S'S6'
I0
I1
tRp2042
(I3
S'|'
NNNI6
I1
I0
tbS'deeply'
tRp2043
I72
sg2
(g3
(S'S7'
I0
I1
tRp2044
(I3
S'|'
NNNI7
I1
I0
tbS'section'
tRp2045
I73
sg2
(g3
(S'S11'
I0
I1
tRp2046
(I3
S'|'
NNNI11
I1
I0
tbS'anniversary'
tRp2047
I471
sg2
(g3
(S'S8'
I0
I1
tRp2048
(I3
S'|'
NNNI8
I1
I0
tbS'shamsher'
tRp2049
I501
sg2
(g3
(S'S4'
I0
I1
tRp2050
(I3
S'|'
NNNI4
I1
I0
tbS'guns'
tRp2051
I82
sg2
(g3
(S'S4'
I0
I1
tRp2052
(I3
S'|'
NNNI4
I1
I0
tbS'womb'
tRp2053
I84
sg2
(g3
(S'S9'
I0
I1
tRp2054
(I3
S'|'
NNNI9
I1
I0
tbS'revealing'
tRp2055
I85
sg2
(g3
(S'S4'
I0
I1
tRp2056
(I3
S'|'
NNNI4
I1
I0
tbS'full'
tRp2057
I86
sg2
(g3
(S'S9'
I0
I1
tRp2058
(I3
S'|'
NNNI9
I1
I0
tbS'christian'
tRp2059
I1264
sg2
(g3
(S'S5'
I0
I1
tRp2060
(I3
S'|'
NNNI5
I1
I0
tbS'loose'
tRp2061
I88
sg2
(g3
(S'S5'
I0
I1
tRp2062
(I3
S'|'
NNNI5
I1
I0
tbS'poses'
tRp2063
I748
sg2
(g3
(S'S9'
I0
I1
tRp2064
(I3
S'|'
NNNI9
I1
I0
tbS'behaviour'
tRp2065
I91
sg2
(g3
(S'S10'
I0
I1
tRp2066
(I3
S'|'
NNNI10
I1
I0
tbS'disastrous'
tRp2067
I93
sg2
(g3
(S'S9'
I0
I1
tRp2068
(I3
S'|'
NNNI9
I1
I0
tbS'situation'
tRp2069
I1600
sg2
(g3
(S'S7'
I0
I1
tRp2070
(I3
S'|'
NNNI7
I1
I0
tbS'tragedy'
tRp2071
I1595
sg2
(g3
(S'S6'
I0
I1
tRp2072
(I3
S'|'
NNNI6
I1
I0
tbS'search'
tRp2073
I100
sg2
(g3
(S'S6'
I0
I1
tRp2074
(I3
S'|'
NNNI6
I1
I0
tbS'allows'
tRp2075
I106
sg2
(g3
(S'S10'
I0
I1
tRp2076
(I3
S'|'
NNNI10
I1
I0
tbS'experience'
tRp2077
I107
sg2
(g3
(S'S14'
I0
I1
tRp2078
(I3
S'|'
NNNI14
I1
I0
tbS'happy-go-lucky'
tRp2079
I108
sg2
(g3
(S'S6'
I0
I1
tRp2080
(I3
S'|'
NNNI6
I1
I0
tbS'social'
tRp2081
I109
sg2
(g3
(S'S11'
I0
I1
tRp2082
(I3
S'|'
NNNI11
I1
I0
tbS'heartbroken'
tRp2083
I110
sg2
(g3
(S'S9'
I0
I1
tRp2084
(I3
S'|'
NNNI9
I1
I0
tbS'murdering'
tRp2085
I111
sg2
(g3
(S'S6'
I0
I1
tRp2086
(I3
S'|'
NNNI6
I1
I0
tbS'family'
tRp2087
I117
sg2
(g3
(S'S8'
I0
I1
tRp2088
(I3
S'|'
NNNI8
I1
I0
tbS'suddenly'
tRp2089
I118
sg2
(g3
(S'S3'
I0
I1
tRp2090
(I3
S'|'
NNNI3
I1
I0
tbS'ask'
tRp2091
I1310
sg2
(g3
(S'S7'
I0
I1
tRp2092
(I3
S'|'
NNNI7
I1
I0
tbS'actress'
tRp2093
I1672
sg2
(g3
(S'S3'
I0
I1
tRp2094
(I3
S'|'
NNNI3
I1
I0
tbS'eye'
tRp2095
I127
sg2
(g3
(S'S5'
I0
I1
tRp2096
(I3
S'|'
NNNI5
I1
I0
tbS'takes'
tRp2097
I128
sg2
(g3
(S'S10'
I0
I1
tRp2098
(I3
S'|'
NNNI10
I1
I0
tbS'revelation'
tRp2099
I131
sg2
(g3
(S'S6'
I0
I1
tRp2100
(I3
S'|'
NNNI6
I1
I0
tbS'charge'
tRp2101
I1088
sg2
(g3
(S'S8'
I0
I1
tRp2102
(I3
S'|'
NNNI8
I1
I0
tbS'gorgeous'
tRp2103
I138
sg2
(g3
(S'S5'
I0
I1
tRp2104
(I3
S'|'
NNNI5
I1
I0
tbS'taken'
tRp2105
I139
sg2
(g3
(S'S4'
I0
I1
tRp2106
(I3
S'|'
NNNI4
I1
I0
tbS'more'
tRp2107
I144
sg2
(g3
(S'S5'
I0
I1
tRp2108
(I3
S'|'
NNNI5
I1
I0
tbS'knows'
tRp2109
I147
sg2
(g3
(S'S7'
I0
I1
tRp2110
(I3
S'|'
NNNI7
I1
I0
tbS'company'
tRp2111
I937
sg2
(g3
(S'S4'
I0
I1
tRp2112
(I3
S'|'
NNNI4
I1
I0
tbS'flag'
tRp2113
I155
sg2
(g3
(S'S5'
I0
I1
tRp2114
(I3
S'|'
NNNI5
I1
I0
tbS'known'
tRp2115
I159
sg2
(g3
(S'S4'
I0
I1
tRp2116
(I3
S'|'
NNNI4
I1
I0
tbS'town'
tRp2117
I999
sg2
(g3
(S'S4'
I0
I1
tRp2118
(I3
S'|'
NNNI4
I1
I0
tbS'none'
tRp2119
I164
sg2
(g3
(S'S6'
I0
I1
tRp2120
(I3
S'|'
NNNI6
I1
I0
tbS'godown'
tRp2121
I166
sg2
(g3
(S'S6'
I0
I1
tRp2122
(I3
S'|'
NNNI6
I1
I0
tbS'guards'
tRp2123
I172
sg2
(g3
(S'S6'
I0
I1
tRp2124
(I3
S'|'
NNNI6
I1
I0
tbS'remain'
tRp2125
I174
sg2
(g3
(S'S5'
I0
I1
tRp2126
(I3
S'|'
NNNI5
I1
I0
tbS'learn'
tRp2127
I176
sg2
(g3
(S'S4'
I0
I1
tRp2128
(I3
S'|'
NNNI4
I1
I0
tbS'male'
tRp2129
I177
sg2
(g3
(S'S9'
I0
I1
tRp2130
(I3
S'|'
NNNI9
I1
I0
tbS'beautiful'
tRp2131
I178
sg2
(g3
(S'S11'
I0
I1
tRp2132
(I3
S'|'
NNNI11
I1
I0
tbS'antagonists'
tRp2133
I179
sg2
(g3
(S'S6'
I0
I1
tRp2134
(I3
S'|'
NNNI6
I1
I0
tbS'pushes'
tRp2135
I846
sg2
(g3
(S'S9'
I0
I1
tRp2136
(I3
S'|'
NNNI9
I1
I0
tbS'neglected'
tRp2137
I345
sg2
(g3
(S'S6'
I0
I1
tRp2138
(I3
S'|'
NNNI6
I1
I0
tbS'accept'
tRp2139
I186
sg2
(g3
(S'S5'
I0
I1
tRp2140
(I3
S'|'
NNNI5
I1
I0
tbS'sense'
tRp2141
I1148
sg2
(g3
(S'S4'
I0
I1
tRp2142
(I3
S'|'
NNNI4
I1
I0
tbS'sikh'
tRp2143
I192
sg2
(g3
(S'S6'
I0
I1
tRp2144
(I3
S'|'
NNNI6
I1
I0
tbS'firmly'
tRp2145
I1228
sg2
(g3
(S'S8'
I0
I1
tRp2146
(I3
S'|'
NNNI8
I1
I0
tbS'narrowly'
tRp2147
I1172
sg2
(g3
(S'S10'
I0
I1
tRp2148
(I3
S'|'
NNNI10
I1
I0
tbS'respective'
tRp2149
I196
sg2
(g3
(S'S5'
I0
I1
tRp2150
(I3
S'|'
NNNI5
I1
I0
tbS'court'
tRp2151
I1522
sg2
(g3
(S'S6'
I0
I1
tRp2152
(I3
S'|'
NNNI6
I1
I0
tbS'rather'
tRp2153
I199
sg2
(g3
(S'S4'
I0
I1
tRp2154
(I3
S'|'
NNNI4
I1
I0
tbS'acts'
tRp2155
I202
sg2
(g3
(S'S9'
I0
I1
tRp2156
(I3
S'|'
NNNI9
I1
I0
tbS'dismisses'
tRp2157
I206
sg2
(g3
(S'S8'
I0
I1
tRp2158
(I3
S'|'
NNNI8
I1
I0
tbS'explains'
tRp2159
I209
sg2
(g3
(S'S5'
I0
I1
tRp2160
(I3
S'|'
NNNI5
I1
I0
tbS'plans'
tRp2161
I212
sg2
(g3
(S'S6'
I0
I1
tRp2162
(I3
S'|'
NNNI6
I1
I0
tbS'advice'
tRp2163
I214
sg2
(g3
(S'S5'
I0
I1
tRp2164
(I3
S'|'
NNNI5
I1
I0
tbS'tries'
tRp2165
I217
sg2
(g3
(S'S5'
I0
I1
tRp2166
(I3
S'|'
NNNI5
I1
I0
tbS'plane'
tRp2167
I218
sg2
(g3
(S'S6'
I0
I1
tRp2168
(I3
S'|'
NNNI6
I1
I0
tbS'coming'
tRp2169
I219
sg2
(g3
(S'S1'
I0
I1
tRp2170
(I3
S'|'
NNNI1
I1
I0
tbS'a'
tRp2171
I223
sg2
(g3
(S'S7'
I0
I1
tRp2172
(I3
S'|'
NNNI7
I1
I0
tbS'prefers'
tRp2173
I226
sg2
(g3
(S'S5'
I0
I1
tRp2174
(I3
S'|'
NNNI5
I1
I0
tbS'shore'
tRp2175
I227
sg2
(g3
(S'S5'
I0
I1
tRp2176
(I3
S'|'
NNNI5
I1
I0
tbS'dream'
tRp2177
I231
sg2
(g3
(S'S7'
I0
I1
tRp2178
(I3
S'|'
NNNI7
I1
I0
tbS'playing'
tRp2179
I1430
sg2
(g3
(S'S4'
I0
I1
tRp2180
(I3
S'|'
NNNI4
I1
I0
tbS'help'
tRp2181
I235
sg2
(g3
(S'S9'
I0
I1
tRp2182
(I3
S'|'
NNNI9
I1
I0
tbS'finalized'
tRp2183
I237
sg2
(g3
(S'S4'
I0
I1
tRp2184
(I3
S'|'
NNNI4
I1
I0
tbS'soon'
tRp2185
I241
sg2
(g3
(S'S5'
I0
I1
tRp2186
(I3
S'|'
NNNI5
I1
I0
tbS'trade'
tRp2187
I242
sg2
(g3
(S'S8'
I0
I1
tRp2188
(I3
S'|'
NNNI8
I1
I0
tbS'disabled'
tRp2189
I243
sg2
(g3
(S'S4'
I0
I1
tRp2190
(I3
S'|'
NNNI4
I1
I0
tbS'held'
tRp2191
I244
sg2
(g3
(S'S9'
I0
I1
tRp2192
(I3
S'|'
NNNI9
I1
I0
tbS'scientist'
tRp2193
I245
sg2
(g3
(S'S7'
I0
I1
tRp2194
(I3
S'|'
NNNI7
I1
I0
tbS'through'
tRp2195
I1481
sg2
(g3
(S'S5'
I0
I1
tRp2196
(I3
S'|'
NNNI5
I1
I0
tbS'signs'
tRp2197
I247
sg2
(g3
(S'S4'
I0
I1
tRp2198
(I3
S'|'
NNNI4
I1
I0
tbS'hell'
tRp2199
I248
sg2
(g3
(S'S3'
I0
I1
tRp2200
(I3
S'|'
NNNI3
I1
I0
tbS'its'
tRp2201
I250
sg2
(g3
(S'S8'
I0
I1
tRp2202
(I3
S'|'
NNNI8
I1
I0
tbS'arrogant'
tRp2203
I251
sg2
(g3
(S'S5'
I0
I1
tRp2204
(I3
S'|'
NNNI5
I1
I0
tbS'zippy'
tRp2205
I254
sg2
(g3
(S'S2'
I0
I1
tRp2206
(I3
S'|'
NNNI2
I1
I0
tbS'20'
tRp2207
I256
sg2
(g3
(S'S5'
I0
I1
tRp2208
(I3
S'|'
NNNI5
I1
I0
tbS'deeds'
tRp2209
I258
sg2
(g3
(S'S8'
I0
I1
tRp2210
(I3
S'|'
NNNI8
I1
I0
tbS'actually'
tRp2211
I260
sg2
(g3
(S'S7'
I0
I1
tRp2212
(I3
S'|'
NNNI7
I1
I0
tbS'absence'
tRp2213
I262
sg2
(g3
(S'S10'
I0
I1
tRp2214
(I3
S'|'
NNNI10
I1
I0
tbS'travelling'
tRp2215
I263
sg2
(g3
(S'S5'
I0
I1
tRp2216
(I3
S'|'
NNNI5
I1
I0
tbS'might'
tRp2217
I264
sg2
(g3
(S'S6'
I0
I1
tRp2218
(I3
S'|'
NNNI6
I1
I0
tbS'crawls'
tRp2219
I1596
sg2
(g3
(S'S4'
I0
I1
tRp2220
(I3
S'|'
NNNI4
I1
I0
tbS'fool'
tRp2221
I266
sg2
(g3
(S'S4'
I0
I1
tRp2222
(I3
S'|'
NNNI4
I1
I0
tbS'good'
tRp2223
I269
sg2
(g3
(S'S8'
I0
I1
tRp2224
(I3
S'|'
NNNI8
I1
I0
tbS'somebody'
tRp2225
I270
sg2
(g3
(S'S7'
I0
I1
tRp2226
(I3
S'|'
NNNI7
I1
I0
tbS'propose'
tRp2227
I271
sg2
(g3
(S'S8'
I0
I1
tRp2228
(I3
S'|'
NNNI8
I1
I0
tbS'brutally'
tRp2229
I273
sg2
(g3
(S'S12'
I0
I1
tRp2230
(I3
S'|'
NNNI12
I1
I0
tbS'instructions'
tRp2231
I1690
sg2
(g3
(S'S10'
I0
I1
tRp2232
(I3
S'|'
NNNI10
I1
I0
tbS'imprisoned'
tRp2233
I185
sg2
(g3
(S'S8'
I0
I1
tRp2234
(I3
S'|'
NNNI8
I1
I0
tbS'pregnant'
tRp2235
I281
sg2
(g3
(S'S6'
I0
I1
tRp2236
(I3
S'|'
NNNI6
I1
I0
tbS'always'
tRp2237
I282
sg2
(g3
(S'S7'
I0
I1
tRp2238
(I3
S'|'
NNNI7
I1
I0
tbS'stopped'
tRp2239
I286
sg2
(g3
(S'S5'
I0
I1
tRp2240
(I3
S'|'
NNNI5
I1
I0
tbS'turns'
tRp2241
I1013
sg2
(g3
(S'S10'
I0
I1
tRp2242
(I3
S'|'
NNNI10
I1
I0
tbS'last-ditch'
tRp2243
I1633
sg2
(g3
(S'S8'
I0
I1
tRp2244
(I3
S'|'
NNNI8
I1
I0
tbS'everyone'
tRp2245
I291
sg2
(g3
(S'S8'
I0
I1
tRp2246
(I3
S'|'
NNNI8
I1
I0
tbS'upstairs'
tRp2247
I292
sg2
(g3
(S'S10'
I0
I1
tRp2248
(I3
S'|'
NNNI10
I1
I0
tbS'generation'
tRp2249
I294
sg2
(g3
(S'S5'
I0
I1
tRp2250
(I3
S'|'
NNNI5
I1
I0
tbS'house'
tRp2251
I295
sg2
(g3
(S'S6'
I0
I1
tRp2252
(I3
S'|'
NNNI6
I1
I0
tbS'energy'
tRp2253
I296
sg2
(g3
(S'S4'
I0
I1
tRp2254
(I3
S'|'
NNNI4
I1
I0
tbS'hard'
tRp2255
I297
sg2
(g3
(S'S12'
I0
I1
tRp2256
(I3
S'|'
NNNI12
I1
I0
tbS'accidentally'
tRp2257
I1717
sg2
(g3
(S'S9'
I0
I1
tRp2258
(I3
S'|'
NNNI9
I1
I0
tbS'operation'
tRp2259
I303
sg2
(g3
(S'S6'
I0
I1
tRp2260
(I3
S'|'
NNNI6
I1
I0
tbS'beyond'
tRp2261
I304
sg2
(g3
(S'S5'
I0
I1
tRp2262
(I3
S'|'
NNNI5
I1
I0
tbS'event'
tRp2263
I1855
sg2
(g3
(S'S6'
I0
I1
tRp2264
(I3
S'|'
NNNI6
I1
I0
tbS'really'
tRp2265
I1860
sg2
(g3
(S'S5'
I0
I1
tRp2266
(I3
S'|'
NNNI5
I1
I0
tbS'deals'
tRp2267
I1017
sg2
(g3
(S'S7'
I0
I1
tRp2268
(I3
S'|'
NNNI7
I1
I0
tbS'alcohol'
tRp2269
I311
sg2
(g3
(S'S5'
I0
I1
tRp2270
(I3
S'|'
NNNI5
I1
I0
tbS'since'
tRp2271
I314
sg2
(g3
(S'S7'
I0
I1
tRp2272
(I3
S'|'
NNNI7
I1
I0
tbS'testify'
tRp2273
I315
sg2
(g3
(S'S6'
I0
I1
tRp2274
(I3
S'|'
NNNI6
I1
I0
tbS'adhere'
tRp2275
I316
sg2
(g3
(S'S6'
I0
I1
tRp2276
(I3
S'|'
NNNI6
I1
I0
tbS'misses'
tRp2277
I317
sg2
(g3
(S'S6'
I0
I1
tRp2278
(I3
S'|'
NNNI6
I1
I0
tbS'avenge'
tRp2279
I320
sg2
(g3
(S'S6'
I0
I1
tRp2280
(I3
S'|'
NNNI6
I1
I0
tbS'births'
tRp2281
I1637
sg2
(g3
(S'S7'
I0
I1
tRp2282
(I3
S'|'
NNNI7
I1
I0
tbS'forgive'
tRp2283
I90
sg2
(g3
(S'S10'
I0
I1
tRp2284
(I3
S'|'
NNNI10
I1
I0
tbS'difficulty'
tRp2285
I328
sg2
(g3
(S'S6'
I0
I1
tRp2286
(I3
S'|'
NNNI6
I1
I0
tbS'reason'
tRp2287
I329
sg2
(g3
(S'S3'
I0
I1
tRp2288
(I3
S'|'
NNNI3
I1
I0
tbS'put'
tRp2289
I331
sg2
(g3
(S'S9'
I0
I1
tRp2290
(I3
S'|'
NNNI9
I1
I0
tbS'beginning'
tRp2291
I334
sg2
(g3
(S'S6'
I0
I1
tRp2292
(I3
S'|'
NNNI6
I1
I0
tbS'driven'
tRp2293
I1639
sg2
(g3
(S'S10'
I0
I1
tRp2294
(I3
S'|'
NNNI10
I1
I0
tbS'persuading'
tRp2295
I340
sg2
(g3
(S'S8'
I0
I1
tRp2296
(I3
S'|'
NNNI8
I1
I0
tbS'terrible'
tRp2297
I341
sg2
(g3
(S'S9'
I0
I1
tRp2298
(I3
S'|'
NNNI9
I1
I0
tbS'expecting'
tRp2299
I344
sg2
(g3
(S'S6'
I0
I1
tRp2300
(I3
S'|'
NNNI6
I1
I0
tbS'pilots'
tRp2301
I346
sg2
(g3
(S'S6'
I0
I1
tRp2302
(I3
S'|'
NNNI6
I1
I0
tbS'fallen'
tRp2303
I347
sg2
(g3
(S'S6'
I0
I1
tRp2304
(I3
S'|'
NNNI6
I1
I0
tbS'throws'
tRp2305
I348
sg2
(g3
(S'S8'
I0
I1
tRp2306
(I3
S'|'
NNNI8
I1
I0
tbS'delicate'
tRp2307
I1642
sg2
(g3
(S'S8'
I0
I1
tRp2308
(I3
S'|'
NNNI8
I1
I0
tbS'embraces'
tRp2309
I351
sg2
(g3
(S'S4'
I0
I1
tRp2310
(I3
S'|'
NNNI4
I1
I0
tbS'feel'
tRp2311
I354
sg2
(g3
(S'S10'
I0
I1
tRp2312
(I3
S'|'
NNNI10
I1
I0
tbS'mistakenly'
tRp2313
I355
sg2
(g3
(S'S6'
I0
I1
tRp2314
(I3
S'|'
NNNI6
I1
I0
tbS'number'
tRp2315
I357
sg2
(g3
(S'S5'
I0
I1
tRp2316
(I3
S'|'
NNNI5
I1
I0
tbS'elder'
tRp2317
I359
sg2
(g3
(S'S5'
I0
I1
tRp2318
(I3
S'|'
NNNI5
I1
I0
tbS'blank'
tRp2319
I361
sg2
(g3
(S'S5'
I0
I1
tRp2320
(I3
S'|'
NNNI5
I1
I0
tbS'wages'
tRp2321
I363
sg2
(g3
(S'S6'
I0
I1
tRp2322
(I3
S'|'
NNNI6
I1
I0
tbS'passes'
tRp2323
I365
sg2
(g3
(S'S5'
I0
I1
tRp2324
(I3
S'|'
NNNI5
I1
I0
tbS'story'
tRp2325
I366
sg2
(g3
(S'S7'
I0
I1
tRp2326
(I3
S'|'
NNNI7
I1
I0
tbS'leading'
tRp2327
I368
sg2
(g3
(S'S5'
I0
I1
tRp2328
(I3
S'|'
NNNI5
I1
I0
tbS'hangs'
tRp2329
I372
sg2
(g3
(S'S6'
I0
I1
tRp2330
(I3
S'|'
NNNI6
I1
I0
tbS'scheme'
tRp2331
I375
sg2
(g3
(S'S7'
I0
I1
tRp2332
(I3
S'|'
NNNI7
I1
I0
tbS'shifted'
tRp2333
I378
sg2
(g3
(S'S6'
I0
I1
tRp2334
(I3
S'|'
NNNI6
I1
I0
tbS'option'
tRp2335
I380
sg2
(g3
(S'S12'
I0
I1
tRp2336
(I3
S'|'
NNNI12
I1
I0
tbS'relationship'
tRp2337
I825
sg2
(g3
(S'S9'
I0
I1
tRp2338
(I3
S'|'
NNNI9
I1
I0
tbS'convinces'
tRp2339
I384
sg2
(g3
(S'S4'
I0
I1
tRp2340
(I3
S'|'
NNNI4
I1
I0
tbS'park'
tRp2341
I385
sg2
(g3
(S'S9'
I0
I1
tRp2342
(I3
S'|'
NNNI9
I1
I0
tbS'immediate'
tRp2343
I386
sg2
(g3
(S'S4'
I0
I1
tRp2344
(I3
S'|'
NNNI4
I1
I0
tbS'part'
tRp2345
I387
sg2
(g3
(S'S7'
I0
I1
tRp2346
(I3
S'|'
NNNI7
I1
I0
tbS'believe'
tRp2347
I388
sg2
(g3
(S'S9'
I0
I1
tRp2348
(I3
S'|'
NNNI9
I1
I0
tbS'convinced'
tRp2349
I389
sg2
(g3
(S'S5'
I0
I1
tRp2350
(I3
S'|'
NNNI5
I1
I0
tbS'grace'
tRp2351
I390
sg2
(g3
(S'S5'
I0
I1
tRp2352
(I3
S'|'
NNNI5
I1
I0
tbS'stirs'
tRp2353
I391
sg2
(g3
(S'S10'
I0
I1
tRp2354
(I3
S'|'
NNNI10
I1
I0
tbS'critically'
tRp2355
I394
sg2
(g3
(S'S12'
I0
I1
tRp2356
(I3
S'|'
NNNI12
I1
I0
tbS'disrespected'
tRp2357
I395
sg2
(g3
(S'S4'
I0
I1
tRp2358
(I3
S'|'
NNNI4
I1
I0
tbS'aims'
tRp2359
I397
sg2
(g3
(S'S9'
I0
I1
tRp2360
(I3
S'|'
NNNI9
I1
I0
tbS'recording'
tRp2361
I1443
sg2
(g3
(S'S12'
I0
I1
tRp2362
(I3
S'|'
NNNI12
I1
I0
tbS'nevertheless'
tRp2363
I1652
sg2
(g3
(S'S8'
I0
I1
tRp2364
(I3
S'|'
NNNI8
I1
I0
tbS'marriage'
tRp2365
I401
sg2
(g3
(S'S8'
I0
I1
tRp2366
(I3
S'|'
NNNI8
I1
I0
tbS'insulted'
tRp2367
I403
sg2
(g3
(S'S9'
I0
I1
tRp2368
(I3
S'|'
NNNI9
I1
I0
tbS'remembers'
tRp2369
I405
sg2
(g3
(S'S5'
I0
I1
tRp2370
(I3
S'|'
NNNI5
I1
I0
tbS'booth'
tRp2371
I1033
sg2
(g3
(S'S9'
I0
I1
tRp2372
(I3
S'|'
NNNI9
I1
I0
tbS'sentenced'
tRp2373
I407
sg2
(g3
(S'S6'
I0
I1
tRp2374
(I3
S'|'
NNNI6
I1
I0
tbS'fights'
tRp2375
I411
sg2
(g3
(S'S5'
I0
I1
tRp2376
(I3
S'|'
NNNI5
I1
I0
tbS'juice'
tRp2377
I415
sg2
(g3
(S'S6'
I0
I1
tRp2378
(I3
S'|'
NNNI6
I1
I0
tbS'shrews'
tRp2379
I419
sg2
(g3
(S'S6'
I0
I1
tRp2380
(I3
S'|'
NNNI6
I1
I0
tbS'orders'
tRp2381
I691
sg2
(g3
(S'S8'
I0
I1
tRp2382
(I3
S'|'
NNNI8
I1
I0
tbS'mountain'
tRp2383
I703
sg2
(g3
(S'S10'
I0
I1
tRp2384
(I3
S'|'
NNNI10
I1
I0
tbS'hopelessly'
tRp2385
I423
sg2
(g3
(S'S5'
I0
I1
tRp2386
(I3
S'|'
NNNI5
I1
I0
tbS'built'
tRp2387
I425
sg2
(g3
(S'S4'
I0
I1
tRp2388
(I3
S'|'
NNNI4
I1
I0
tbS'self'
tRp2389
I730
sg2
(g3
(S'S8'
I0
I1
tRp2390
(I3
S'|'
NNNI8
I1
I0
tbS'officers'
tRp2391
I429
sg2
(g3
(S'S4'
I0
I1
tRp2392
(I3
S'|'
NNNI4
I1
I0
tbS'also'
tRp2393
I430
sg2
(g3
(S'S5'
I0
I1
tRp2394
(I3
S'|'
NNNI5
I1
I0
tbS'build'
tRp2395
I432
sg2
(g3
(S'S7'
I0
I1
tRp2396
(I3
S'|'
NNNI7
I1
I0
tbS'finding'
tRp2397
I434
sg2
(g3
(S'S4'
I0
I1
tRp2398
(I3
S'|'
NNNI4
I1
I0
tbS'play'
tRp2399
I435
sg2
(g3
(S'S7'
I0
I1
tRp2400
(I3
S'|'
NNNI7
I1
I0
tbS'towards'
tRp2401
I436
sg2
(g3
(S'S5'
I0
I1
tRp2402
(I3
S'|'
NNNI5
I1
I0
tbS'hires'
tRp2403
I437
sg2
(g3
(S'S7'
I0
I1
tRp2404
(I3
S'|'
NNNI7
I1
I0
tbS'retired'
tRp2405
I891
sg2
(g3
(S'S5'
I0
I1
tRp2406
(I3
S'|'
NNNI5
I1
I0
tbS'flute'
tRp2407
I441
sg2
(g3
(S'S5'
I0
I1
tRp2408
(I3
S'|'
NNNI5
I1
I0
tbS'reach'
tRp2409
I823
sg2
(g3
(S'S8'
I0
I1
tRp2410
(I3
S'|'
NNNI8
I1
I0
tbS'reunited'
tRp2411
I443
sg2
(g3
(S'S11'
I0
I1
tRp2412
(I3
S'|'
NNNI11
I1
I0
tbS'20-year-old'
tRp2413
I444
sg2
(g3
(S'S4'
I0
I1
tRp2414
(I3
S'|'
NNNI4
I1
I0
tbS'most'
tRp2415
I445
sg2
(g3
(S'S5'
I0
I1
tRp2416
(I3
S'|'
NNNI5
I1
I0
tbS'charm'
tRp2417
I447
sg2
(g3
(S'S4'
I0
I1
tRp2418
(I3
S'|'
NNNI4
I1
I0
tbS'plan'
tRp2419
I448
sg2
(g3
(S'S7'
I0
I1
tRp2420
(I3
S'|'
NNNI7
I1
I0
tbS'nothing'
tRp2421
I450
sg2
(g3
(S'S8'
I0
I1
tRp2422
(I3
S'|'
NNNI8
I1
I0
tbS'reunites'
tRp2423
I451
sg2
(g3
(S'S10'
I0
I1
tRp2424
(I3
S'|'
NNNI10
I1
I0
tbS'intervenes'
tRp2425
I453
sg2
(g3
(S'S11'
I0
I1
tRp2426
(I3
S'|'
NNNI11
I1
I0
tbS'understands'
tRp2427
I882
sg2
(g3
(S'S7'
I0
I1
tRp2428
(I3
S'|'
NNNI7
I1
I0
tbS'arising'
tRp2429
I1662
sg2
(g3
(S'S5'
I0
I1
tRp2430
(I3
S'|'
NNNI5
I1
I0
tbS'clear'
tRp2431
I700
sg2
(g3
(S'S11'
I0
I1
tRp2432
(I3
S'|'
NNNI11
I1
I0
tbS'traditional'
tRp2433
I459
sg2
(g3
(S'S8'
I0
I1
tRp2434
(I3
S'|'
NNNI8
I1
I0
tbS'artistic'
tRp2435
I462
sg2
(g3
(S'S5'
I0
I1
tRp2436
(I3
S'|'
NNNI5
I1
I0
tbS'clean'
tRp2437
I463
sg2
(g3
(S'S12'
I0
I1
tRp2438
(I3
S'|'
NNNI12
I1
I0
tbS'perseverance'
tRp2439
I466
sg2
(g3
(S'S7'
I0
I1
tRp2440
(I3
S'|'
NNNI7
I1
I0
tbS'stunned'
tRp2441
I468
sg2
(g3
(S'S4'
I0
I1
tRp2442
(I3
S'|'
NNNI4
I1
I0
tbS'find'
tRp2443
I478
sg2
(g3
(S'S10'
I0
I1
tRp2444
(I3
S'|'
NNNI10
I1
I0
tbS'completion'
tRp2445
I480
sg2
(g3
(S'S7'
I0
I1
tRp2446
(I3
S'|'
NNNI7
I1
I0
tbS'abducts'
tRp2447
I481
sg2
(g3
(S'S6'
I0
I1
tRp2448
(I3
S'|'
NNNI6
I1
I0
tbS'writes'
tRp2449
I1082
sg2
(g3
(S'S7'
I0
I1
tRp2450
(I3
S'|'
NNNI7
I1
I0
tbS'unhappy'
tRp2451
I486
sg2
(g3
(S'S6'
I0
I1
tRp2452
(I3
S'|'
NNNI6
I1
I0
tbS'failed'
tRp2453
I488
sg2
(g3
(S'S5'
I0
I1
tRp2454
(I3
S'|'
NNNI5
I1
I0
tbS'money'
tRp2455
I1668
sg2
(g3
(S'S1'
I0
I1
tRp2456
(I3
S'|'
NNNI1
I1
I0
tbS'8'
tRp2457
I491
sg2
(g3
(S'S11'
I0
I1
tRp2458
(I3
S'|'
NNNI11
I1
I0
tbS'distributes'
tRp2459
I492
sg2
(g3
(S'S3'
I0
I1
tRp2460
(I3
S'|'
NNNI3
I1
I0
tbS'his'
tRp2461
I496
sg2
(g3
(S'S3'
I0
I1
tRp2462
(I3
S'|'
NNNI3
I1
I0
tbS'hit'
tRp2463
I497
sg2
(g3
(S'S5'
I0
I1
tRp2464
(I3
S'|'
NNNI5
I1
I0
tbS'gains'
tRp2465
I498
sg2
(g3
(S'S10'
I0
I1
tRp2466
(I3
S'|'
NNNI10
I1
I0
tbS'permission'
tRp2467
I839
sg2
(g3
(S'S7'
I0
I1
tRp2468
(I3
S'|'
NNNI7
I1
I0
tbS'secular'
tRp2469
I500
sg2
(g3
(S'S6'
I0
I1
tRp2470
(I3
S'|'
NNNI6
I1
I0
tbS'famous'
tRp2471
I504
sg2
(g3
(S'S5'
I0
I1
tRp2472
(I3
S'|'
NNNI5
I1
I0
tbS'feels'
tRp2473
I505
sg2
(g3
(S'S7'
I0
I1
tRp2474
(I3
S'|'
NNNI7
I1
I0
tbS'actions'
tRp2475
I124
sg2
(g3
(S'S6'
I0
I1
tRp2476
(I3
S'|'
NNNI6
I1
I0
tbS'during'
tRp2477
I509
sg2
(g3
(S'S3'
I0
I1
tRp2478
(I3
S'|'
NNNI3
I1
I0
tbS'him'
tRp2479
I512
sg2
(g3
(S'S5'
I0
I1
tRp2480
(I3
S'|'
NNNI5
I1
I0
tbS'enemy'
tRp2481
I513
sg2
(g3
(S'S7'
I0
I1
tRp2482
(I3
S'|'
NNNI7
I1
I0
tbS'catches'
tRp2483
I1240
sg2
(g3
(S'S11'
I0
I1
tRp2484
(I3
S'|'
NNNI11
I1
I0
tbS'investigate'
tRp2485
I1284
sg2
(g3
(S'S6'
I0
I1
tRp2486
(I3
S'|'
NNNI6
I1
I0
tbS'common'
tRp2487
I522
sg2
(g3
(S'S6'
I0
I1
tRp2488
(I3
S'|'
NNNI6
I1
I0
tbS'gotten'
tRp2489
I523
sg2
(g3
(S'S11'
I0
I1
tRp2490
(I3
S'|'
NNNI11
I1
I0
tbS'switzerland'
tRp2491
I1298
sg2
(g3
(S'S4'
I0
I1
tRp2492
(I3
S'|'
NNNI4
I1
I0
tbS'bars'
tRp2493
I530
sg2
(g3
(S'S3'
I0
I1
tRp2494
(I3
S'|'
NNNI3
I1
I0
tbS'set'
tRp2495
I531
sg2
(g3
(S'S10'
I0
I1
tRp2496
(I3
S'|'
NNNI10
I1
I0
tbS'patriotism'
tRp2497
I1333
sg2
(g3
(S'S8'
I0
I1
tRp2498
(I3
S'|'
NNNI8
I1
I0
tbS'throwing'
tRp2499
I533
sg2
(g3
(S'S3'
I0
I1
tRp2500
(I3
S'|'
NNNI3
I1
I0
tbS'sex'
tRp2501
I534
sg2
(g3
(S'S7'
I0
I1
tRp2502
(I3
S'|'
NNNI7
I1
I0
tbS'culture'
tRp2503
I536
sg2
(g3
(S'S3'
I0
I1
tRp2504
(I3
S'|'
NNNI3
I1
I0
tbS'see'
tRp2505
I537
sg2
(g3
(S'S3'
I0
I1
tRp2506
(I3
S'|'
NNNI3
I1
I0
tbS'are'
tRp2507
I1379
sg2
(g3
(S'S5'
I0
I1
tRp2508
(I3
S'|'
NNNI5
I1
I0
tbS'close'
tRp2509
I1391
sg2
(g3
(S'S3'
I0
I1
tRp2510
(I3
S'|'
NNNI3
I1
I0
tbS'arm'
tRp2511
I542
sg2
(g3
(S'S7'
I0
I1
tRp2512
(I3
S'|'
NNNI7
I1
I0
tbS'project'
tRp2513
I544
sg2
(g3
(S'S6'
I0
I1
tRp2514
(I3
S'|'
NNNI6
I1
I0
tbS'learns'
tRp2515
I1294
sg2
(g3
(S'S7'
I0
I1
tRp2516
(I3
S'|'
NNNI7
I1
I0
tbS'desires'
tRp2517
I1058
sg2
(g3
(S'S5'
I0
I1
tRp2518
(I3
S'|'
NNNI5
I1
I0
tbS'movie'
tRp2519
I548
sg2
(g3
(S'S3'
I0
I1
tRp2520
(I3
S'|'
NNNI3
I1
I0
tbS'woo'
tRp2521
I552
sg2
(g3
(S'S6'
I0
I1
tRp2522
(I3
S'|'
NNNI6
I1
I0
tbS'honour'
tRp2523
I1060
sg2
(g3
(S'S9'
I0
I1
tRp2524
(I3
S'|'
NNNI9
I1
I0
tbS'architect'
tRp2525
I556
sg2
(g3
(S'S8'
I0
I1
tRp2526
(I3
S'|'
NNNI8
I1
I0
tbS'soulmate'
tRp2527
I1020
sg2
(g3
(S'S7'
I0
I1
tRp2528
(I3
S'|'
NNNI7
I1
I0
tbS'knowing'
tRp2529
I558
sg2
(g3
(S'S4'
I0
I1
tRp2530
(I3
S'|'
NNNI4
I1
I0
tbS'solo'
tRp2531
I559
sg2
(g3
(S'S8'
I0
I1
tRp2532
(I3
S'|'
NNNI8
I1
I0
tbS'creating'
tRp2533
I562
sg2
(g3
(S'S9'
I0
I1
tRp2534
(I3
S'|'
NNNI9
I1
I0
tbS'initially'
tRp2535
I564
sg2
(g3
(S'S4'
I0
I1
tRp2536
(I3
S'|'
NNNI4
I1
I0
tbS'sold'
tRp2537
I565
sg2
(g3
(S'S11'
I0
I1
tRp2538
(I3
S'|'
NNNI11
I1
I0
tbS'confiscated'
tRp2539
I567
sg2
(g3
(S'S8'
I0
I1
tRp2540
(I3
S'|'
NNNI8
I1
I0
tbS'incident'
tRp2541
I569
sg2
(g3
(S'S7'
I0
I1
tRp2542
(I3
S'|'
NNNI7
I1
I0
tbS'succeed'
tRp2543
I570
sg2
(g3
(S'S4'
I0
I1
tRp2544
(I3
S'|'
NNNI4
I1
I0
tbS'both'
tRp2545
I577
sg2
(g3
(S'S4'
I0
I1
tRp2546
(I3
S'|'
NNNI4
I1
I0
tbS'last'
tRp2547
I580
sg2
(g3
(S'S6'
I0
I1
tRp2548
(I3
S'|'
NNNI6
I1
I0
tbS'adores'
tRp2549
I581
sg2
(g3
(S'S6'
I0
I1
tRp2550
(I3
S'|'
NNNI6
I1
I0
tbS'fiance'
tRp2551
I98
sg2
(g3
(S'S7'
I0
I1
tRp2552
(I3
S'|'
NNNI7
I1
I0
tbS'foreign'
tRp2553
I587
sg2
(g3
(S'S3'
I0
I1
tRp2554
(I3
S'|'
NNNI3
I1
I0
tbS'let'
tRp2555
I591
sg2
(g3
(S'S5'
I0
I1
tRp2556
(I3
S'|'
NNNI5
I1
I0
tbS'whole'
tRp2557
I594
sg2
(g3
(S'S5'
I0
I1
tRp2558
(I3
S'|'
NNNI5
I1
I0
tbS'finds'
tRp2559
I595
sg2
(g3
(S'S6'
I0
I1
tRp2560
(I3
S'|'
NNNI6
I1
I0
tbS'headed'
tRp2561
I600
sg2
(g3
(S'S8'
I0
I1
tRp2562
(I3
S'|'
NNNI8
I1
I0
tbS'smashing'
tRp2563
I603
sg2
(g3
(S'S9'
I0
I1
tRp2564
(I3
S'|'
NNNI9
I1
I0
tbS'community'
tRp2565
I605
sg2
(g3
(S'S6'
I0
I1
tRp2566
(I3
S'|'
NNNI6
I1
I0
tbS'dancer'
tRp2567
I607
sg2
(g3
(S'S5'
I0
I1
tRp2568
(I3
S'|'
NNNI5
I1
I0
tbS'likes'
tRp2569
I608
sg2
(g3
(S'S7'
I0
I1
tRp2570
(I3
S'|'
NNNI7
I1
I0
tbS'village'
tRp2571
I609
sg2
(g3
(S'S5'
I0
I1
tRp2572
(I3
S'|'
NNNI5
I1
I0
tbS'raise'
tRp2573
I614
sg2
(g3
(S'S3'
I0
I1
tRp2574
(I3
S'|'
NNNI3
I1
I0
tbS'due'
tRp2575
I1784
sg2
(g3
(S'S4'
I0
I1
tRp2576
(I3
S'|'
NNNI4
I1
I0
tbS'whom'
tRp2577
I620
sg2
(g3
(S'S11'
I0
I1
tRp2578
(I3
S'|'
NNNI11
I1
I0
tbS'reciprocate'
tRp2579
I621
sg2
(g3
(S'S7'
I0
I1
tRp2580
(I3
S'|'
NNNI7
I1
I0
tbS'amnesia'
tRp2581
I624
sg2
(g3
(S'S9'
I0
I1
tRp2582
(I3
S'|'
NNNI9
I1
I0
tbS'mockingly'
tRp2583
I629
sg2
(g3
(S'S9'
I0
I1
tRp2584
(I3
S'|'
NNNI9
I1
I0
tbS'territory'
tRp2585
I630
sg2
(g3
(S'S5'
I0
I1
tRp2586
(I3
S'|'
NNNI5
I1
I0
tbS'empty'
tRp2587
I1830
sg2
(g3
(S'S1'
I0
I1
tRp2588
(I3
S'|'
NNNI1
I1
I0
tbS'4'
tRp2589
I1688
sg2
(g3
(S'S10'
I0
I1
tRp2590
(I3
S'|'
NNNI10
I1
I0
tbS'sweetheart'
tRp2591
I1839
sg2
(g3
(S'S10'
I0
I1
tRp2592
(I3
S'|'
NNNI10
I1
I0
tbS'suspicious'
tRp2593
I634
sg2
(g3
(S'S6'
I0
I1
tRp2594
(I3
S'|'
NNNI6
I1
I0
tbS'flight'
tRp2595
I635
sg2
(g3
(S'S5'
I0
I1
tRp2596
(I3
S'|'
NNNI5
I1
I0
tbS'girls'
tRp2597
I370
sg2
(g3
(S'S4'
I0
I1
tRp2598
(I3
S'|'
NNNI4
I1
I0
tbS'fire'
tRp2599
I639
sg2
(g3
(S'S7'
I0
I1
tRp2600
(I3
S'|'
NNNI7
I1
I0
tbS'upstart'
tRp2601
I640
sg2
(g3
(S'S5'
I0
I1
tRp2602
(I3
S'|'
NNNI5
I1
I0
tbS'lives'
tRp2603
I644
sg2
(g3
(S'S10'
I0
I1
tRp2604
(I3
S'|'
NNNI10
I1
I0
tbS'systematic'
tRp2605
I645
sg2
(g3
(S'S10'
I0
I1
tRp2606
(I3
S'|'
NNNI10
I1
I0
tbS'instructor'
tRp2607
I648
sg2
(g3
(S'S10'
I0
I1
tRp2608
(I3
S'|'
NNNI10
I1
I0
tbS'politician'
tRp2609
I651
sg2
(g3
(S'S4'
I0
I1
tRp2610
(I3
S'|'
NNNI4
I1
I0
tbS'look'
tRp2611
I652
sg2
(g3
(S'S8'
I0
I1
tRp2612
(I3
S'|'
NNNI8
I1
I0
tbS'straight'
tRp2613
I656
sg2
(g3
(S'S9'
I0
I1
tRp2614
(I3
S'|'
NNNI9
I1
I0
tbS'elections'
tRp2615
I657
sg2
(g3
(S'S5'
I0
I1
tRp2616
(I3
S'|'
NNNI5
I1
I0
tbS'while'
tRp2617
I659
sg2
(g3
(S'S3'
I0
I1
tRp2618
(I3
S'|'
NNNI3
I1
I0
tbS'fun'
tRp2619
I661
sg2
(g3
(S'S5'
I0
I1
tRp2620
(I3
S'|'
NNNI5
I1
I0
tbS'flees'
tRp2621
I665
sg2
(g3
(S'S10'
I0
I1
tRp2622
(I3
S'|'
NNNI10
I1
I0
tbS'birthright'
tRp2623
I667
sg2
(g3
(S'S7'
I0
I1
tRp2624
(I3
S'|'
NNNI7
I1
I0
tbS'embarks'
tRp2625
I672
sg2
(g3
(S'S4'
I0
I1
tRp2626
(I3
S'|'
NNNI4
I1
I0
tbS'owes'
tRp2627
I682
sg2
(g3
(S'S5'
I0
I1
tRp2628
(I3
S'|'
NNNI5
I1
I0
tbS'ready'
tRp2629
I684
sg2
(g3
(S'S5'
I0
I1
tRp2630
(I3
S'|'
NNNI5
I1
I0
tbS'grant'
tRp2631
I688
sg2
(g3
(S'S5'
I0
I1
tRp2632
(I3
S'|'
NNNI5
I1
I0
tbS'grand'
tRp2633
I693
sg2
(g3
(S'S11'
I0
I1
tRp2634
(I3
S'|'
NNNI11
I1
I0
tbS'forgiveness'
tRp2635
I696
sg2
(g3
(S'S6'
I0
I1
tRp2636
(I3
S'|'
NNNI6
I1
I0
tbS'higher'
tRp2637
I698
sg2
(g3
(S'S7'
I0
I1
tRp2638
(I3
S'|'
NNNI7
I1
I0
tbS'arrives'
tRp2639
I701
sg2
(g3
(S'S8'
I0
I1
tRp2640
(I3
S'|'
NNNI8
I1
I0
tbS'henchmen'
tRp2641
I708
sg2
(g3
(S'S4'
I0
I1
tRp2642
(I3
S'|'
NNNI4
I1
I0
tbS'uses'
tRp2643
I710
sg2
(g3
(S'S8'
I0
I1
tRp2644
(I3
S'|'
NNNI8
I1
I0
tbS'haunting'
tRp2645
I599
sg2
(g3
(S'S4'
I0
I1
tRp2646
(I3
S'|'
NNNI4
I1
I0
tbS'nabs'
tRp2647
I715
sg2
(g3
(S'S6'
I0
I1
tRp2648
(I3
S'|'
NNNI6
I1
I0
tbS'recent'
tRp2649
I716
sg2
(g3
(S'S5'
I0
I1
tRp2650
(I3
S'|'
NNNI5
I1
I0
tbS'older'
tRp2651
I719
sg2
(g3
(S'S6'
I0
I1
tRp2652
(I3
S'|'
NNNI6
I1
I0
tbS'flirts'
tRp2653
I721
sg2
(g3
(S'S5'
I0
I1
tRp2654
(I3
S'|'
NNNI5
I1
I0
tbS'maker'
tRp2655
I723
sg2
(g3
(S'S6'
I0
I1
tRp2656
(I3
S'|'
NNNI6
I1
I0
tbS'person'
tRp2657
I724
sg2
(g3
(S'S9'
I0
I1
tRp2658
(I3
S'|'
NNNI9
I1
I0
tbS'meanwhile'
tRp2659
I915
sg2
(g3
(S'S8'
I0
I1
tRp2660
(I3
S'|'
NNNI8
I1
I0
tbS'appalled'
tRp2661
I458
sg2
(g3
(S'S6'
I0
I1
tRp2662
(I3
S'|'
NNNI6
I1
I0
tbS'things'
tRp2663
I731
sg2
(g3
(S'S9'
I0
I1
tRp2664
(I3
S'|'
NNNI9
I1
I0
tbS'listening'
tRp2665
I913
sg2
(g3
(S'S7'
I0
I1
tRp2666
(I3
S'|'
NNNI7
I1
I0
tbS'arrests'
tRp2667
I737
sg2
(g3
(S'S12'
I0
I1
tRp2668
(I3
S'|'
NNNI12
I1
I0
tbS'reincarnated'
tRp2669
I738
sg2
(g3
(S'S6'
I0
I1
tRp2670
(I3
S'|'
NNNI6
I1
I0
tbS'atomic'
tRp2671
I739
sg2
(g3
(S'S3'
I0
I1
tRp2672
(I3
S'|'
NNNI3
I1
I0
tbS'mob'
tRp2673
I1698
sg2
(g3
(S'S4'
I0
I1
tRp2674
(I3
S'|'
NNNI4
I1
I0
tbS'love'
tRp2675
I1084
sg2
(g3
(S'S8'
I0
I1
tRp2676
(I3
S'|'
NNNI8
I1
I0
tbS'injuries'
tRp2677
I744
sg2
(g3
(S'S7'
I0
I1
tRp2678
(I3
S'|'
NNNI7
I1
I0
tbS'letting'
tRp2679
I746
sg2
(g3
(S'S9'
I0
I1
tRp2680
(I3
S'|'
NNNI9
I1
I0
tbS'implicate'
tRp2681
I1700
sg2
(g3
(S'S8'
I0
I1
tRp2682
(I3
S'|'
NNNI8
I1
I0
tbS'marrying'
tRp2683
I750
sg2
(g3
(S'S9'
I0
I1
tRp2684
(I3
S'|'
NNNI9
I1
I0
tbS'miscreant'
tRp2685
I751
sg2
(g3
(S'S8'
I0
I1
tRp2686
(I3
S'|'
NNNI8
I1
I0
tbS'shortcut'
tRp2687
I754
sg2
(g3
(S'S7'
I0
I1
tRp2688
(I3
S'|'
NNNI7
I1
I0
tbS'signals'
tRp2689
I755
sg2
(g3
(S'S8'
I0
I1
tRp2690
(I3
S'|'
NNNI8
I1
I0
tbS'shouting'
tRp2691
I756
sg2
(g3
(S'S7'
I0
I1
tRp2692
(I3
S'|'
NNNI7
I1
I0
tbS'parents'
tRp2693
I758
sg2
(g3
(S'S6'
I0
I1
tRp2694
(I3
S'|'
NNNI6
I1
I0
tbS'sydney'
tRp2695
I356
sg2
(g3
(S'S7'
I0
I1
tRp2696
(I3
S'|'
NNNI7
I1
I0
tbS'excited'
tRp2697
I59
sg2
(g3
(S'S5'
I0
I1
tRp2698
(I3
S'|'
NNNI5
I1
I0
tbS'hates'
tRp2699
I764
sg2
(g3
(S'S8'
I0
I1
tRp2700
(I3
S'|'
NNNI8
I1
I0
tbS'clutches'
tRp2701
I766
sg2
(g3
(S'S7'
I0
I1
tRp2702
(I3
S'|'
NNNI7
I1
I0
tbS'demands'
tRp2703
I767
sg2
(g3
(S'S3'
I0
I1
tRp2704
(I3
S'|'
NNNI3
I1
I0
tbS'big'
tRp2705
I157
sg2
(g3
(S'S7'
I0
I1
tRp2706
(I3
S'|'
NNNI7
I1
I0
tbS'showing'
tRp2707
I473
sg2
(g3
(S'S5'
I0
I1
tRp2708
(I3
S'|'
NNNI5
I1
I0
tbS'wives'
tRp2709
I770
sg2
(g3
(S'S7'
I0
I1
tRp2710
(I3
S'|'
NNNI7
I1
I0
tbS'matters'
tRp2711
I771
sg2
(g3
(S'S9'
I0
I1
tRp2712
(I3
S'|'
NNNI9
I1
I0
tbS'suffering'
tRp2713
I772
sg2
(g3
(S'S6'
I0
I1
tRp2714
(I3
S'|'
NNNI6
I1
I0
tbS'abound'
tRp2715
I773
sg2
(g3
(S'S7'
I0
I1
tRp2716
(I3
S'|'
NNNI7
I1
I0
tbS'follows'
tRp2717
I780
sg2
(g3
(S'S8'
I0
I1
tRp2718
(I3
S'|'
NNNI8
I1
I0
tbS'continue'
tRp2719
I783
sg2
(g3
(S'S7'
I0
I1
tRp2720
(I3
S'|'
NNNI7
I1
I0
tbS'popular'
tRp2721
I787
sg2
(g3
(S'S6'
I0
I1
tRp2722
(I3
S'|'
NNNI6
I1
I0
tbS'tribes'
tRp2723
I788
sg2
(g3
(S'S10'
I0
I1
tRp2724
(I3
S'|'
NNNI10
I1
I0
tbS'absolutely'
tRp2725
I810
sg2
(g3
(S'S3'
I0
I1
tRp2726
(I3
S'|'
NNNI3
I1
I0
tbS'1st'
tRp2727
I1411
sg2
(g3
(S'S4'
I0
I1
tRp2728
(I3
S'|'
NNNI4
I1
I0
tbS'some'
tRp2729
I796
sg2
(g3
(S'S4'
I0
I1
tRp2730
(I3
S'|'
NNNI4
I1
I0
tbS'back'
tRp2731
I797
sg2
(g3
(S'S11'
I0
I1
tRp2732
(I3
S'|'
NNNI11
I1
I0
tbS'experienced'
tRp2733
I799
sg2
(g3
(S'S8'
I0
I1
tRp2734
(I3
S'|'
NNNI8
I1
I0
tbS'grenades'
tRp2735
I906
sg2
(g3
(S'S7'
I0
I1
tRp2736
(I3
S'|'
NNNI7
I1
I0
tbS'obliges'
tRp2737
I803
sg2
(g3
(S'S9'
I0
I1
tRp2738
(I3
S'|'
NNNI9
I1
I0
tbS'gradually'
tRp2739
I804
sg2
(g3
(S'S6'
I0
I1
tRp2740
(I3
S'|'
NNNI6
I1
I0
tbS'wrists'
tRp2741
I806
sg2
(g3
(S'S8'
I0
I1
tRp2742
(I3
S'|'
NNNI8
I1
I0
tbS'contacts'
tRp2743
I808
sg2
(g3
(S'S7'
I0
I1
tRp2744
(I3
S'|'
NNNI7
I1
I0
tbS'affects'
tRp2745
I809
sg2
(g3
(S'S8'
I0
I1
tRp2746
(I3
S'|'
NNNI8
I1
I0
tbS'decision'
tRp2747
I1282
sg2
(g3
(S'S6'
I0
I1
tRp2748
(I3
S'|'
NNNI6
I1
I0
tbS'though'
tRp2749
I811
sg2
(g3
(S'S12'
I0
I1
tRp2750
(I3
S'|'
NNNI12
I1
I0
tbS'ill-mannered'
tRp2751
I812
sg2
(g3
(S'S8'
I0
I1
tRp2752
(I3
S'|'
NNNI8
I1
I0
tbS'religion'
tRp2753
I662
sg2
(g3
(S'S4'
I0
I1
tRp2754
(I3
S'|'
NNNI4
I1
I0
tbS'prof'
tRp2755
I814
sg2
(g3
(S'S6'
I0
I1
tRp2756
(I3
S'|'
NNNI6
I1
I0
tbS'temple'
tRp2757
I817
sg2
(g3
(S'S2'
I0
I1
tRp2758
(I3
S'|'
NNNI2
I1
I0
tbS'be'
tRp2759
I818
sg2
(g3
(S'S3'
I0
I1
tRp2760
(I3
S'|'
NNNI3
I1
I0
tbS'run'
tRp2761
I1162
sg2
(g3
(S'S9'
I0
I1
tRp2762
(I3
S'|'
NNNI9
I1
I0
tbS'agreement'
tRp2763
I824
sg2
(g3
(S'S7'
I0
I1
tRp2764
(I3
S'|'
NNNI7
I1
I0
tbS'refuses'
tRp2765
I827
sg2
(g3
(S'S5'
I0
I1
tRp2766
(I3
S'|'
NNNI5
I1
I0
tbS'plots'
tRp2767
I1092
sg2
(g3
(S'S2'
I0
I1
tRp2768
(I3
S'|'
NNNI2
I1
I0
tbS'by'
tRp2769
I1104
sg2
(g3
(S'S6'
I0
I1
tRp2770
(I3
S'|'
NNNI6
I1
I0
tbS'firing'
tRp2771
I834
sg2
(g3
(S'S8'
I0
I1
tRp2772
(I3
S'|'
NNNI8
I1
I0
tbS'stricken'
tRp2773
I836
sg2
(g3
(S'S6'
I0
I1
tRp2774
(I3
S'|'
NNNI6
I1
I0
tbS'ambush'
tRp2775
I837
sg2
(g3
(S'S6'
I0
I1
tRp2776
(I3
S'|'
NNNI6
I1
I0
tbS'seeing'
tRp2777
I840
sg2
(g3
(S'S10'
I0
I1
tRp2778
(I3
S'|'
NNNI10
I1
I0
tbS'terrorists'
tRp2779
I1223
sg2
(g3
(S'S4'
I0
I1
tRp2780
(I3
S'|'
NNNI4
I1
I0
tbS'into'
tRp2781
I845
sg2
(g3
(S'S6'
I0
I1
tRp2782
(I3
S'|'
NNNI6
I1
I0
tbS'framed'
tRp2783
I1718
sg2
(g3
(S'S11'
I0
I1
tRp2784
(I3
S'|'
NNNI11
I1
I0
tbS'appropriate'
tRp2785
I1258
sg2
(g3
(S'S5'
I0
I1
tRp2786
(I3
S'|'
NNNI5
I1
I0
tbS'aarti'
tRp2787
I853
sg2
(g3
(S'S9'
I0
I1
tRp2788
(I3
S'|'
NNNI9
I1
I0
tbS'accepting'
tRp2789
I854
sg2
(g3
(S'S8'
I0
I1
tRp2790
(I3
S'|'
NNNI8
I1
I0
tbS'question'
tRp2791
I860
sg2
(g3
(S'S6'
I0
I1
tRp2792
(I3
S'|'
NNNI6
I1
I0
tbS'sneaks'
tRp2793
I861
sg2
(g3
(S'S4'
I0
I1
tRp2794
(I3
S'|'
NNNI4
I1
I0
tbS'long'
tRp2795
I1331
sg2
(g3
(S'S9'
I0
I1
tRp2796
(I3
S'|'
NNNI9
I1
I0
tbS'overpower'
tRp2797
I864
sg2
(g3
(S'S5'
I0
I1
tRp2798
(I3
S'|'
NNNI5
I1
I0
tbS'grave'
tRp2799
I452
sg2
(g3
(S'S7'
I0
I1
tRp2800
(I3
S'|'
NNNI7
I1
I0
tbS'forward'
tRp2801
I1362
sg2
(g3
(S'S1'
I0
I1
tRp2802
(I3
S'|'
NNNI1
I1
I0
tbS':'
tRp2803
I871
sg2
(g3
(S'S5'
I0
I1
tRp2804
(I3
S'|'
NNNI5
I1
I0
tbS'opens'
tRp2805
I874
sg2
(g3
(S'S5'
I0
I1
tRp2806
(I3
S'|'
NNNI5
I1
I0
tbS'files'
tRp2807
I876
sg2
(g3
(S'S7'
I0
I1
tRp2808
(I3
S'|'
NNNI7
I1
I0
tbS'himself'
tRp2809
I879
sg2
(g3
(S'S10'
I0
I1
tRp2810
(I3
S'|'
NNNI10
I1
I0
tbS'registered'
tRp2811
I1412
sg2
(g3
(S'S5'
I0
I1
tRp2812
(I3
S'|'
NNNI5
I1
I0
tbS'thief'
tRp2813
I1724
sg2
(g3
(S'S4'
I0
I1
tRp2814
(I3
S'|'
NNNI4
I1
I0
tbS'boys'
tRp2815
I884
sg2
(g3
(S'S10'
I0
I1
tRp2816
(I3
S'|'
NNNI10
I1
I0
tbS'repeatedly'
tRp2817
I886
sg2
(g3
(S'S7'
I0
I1
tRp2818
(I3
S'|'
NNNI7
I1
I0
tbS'raising'
tRp2819
I890
sg2
(g3
(S'S10'
I0
I1
tRp2820
(I3
S'|'
NNNI10
I1
I0
tbS'fulfilling'
tRp2821
I894
sg2
(g3
(S'S5'
I0
I1
tRp2822
(I3
S'|'
NNNI5
I1
I0
tbS'munim'
tRp2823
I896
sg2
(g3
(S'S2'
I0
I1
tRp2824
(I3
S'|'
NNNI2
I1
I0
tbS'up'
tRp2825
I1492
sg2
(g3
(S'S2'
I0
I1
tRp2826
(I3
S'|'
NNNI2
I1
I0
tbS'us'
tRp2827
I898
sg2
(g3
(S'S2'
I0
I1
tRp2828
(I3
S'|'
NNNI2
I1
I0
tbS'uk'
tRp2829
I901
sg2
(g3
(S'S6'
I0
I1
tRp2830
(I3
S'|'
NNNI6
I1
I0
tbS'planes'
tRp2831
I902
sg2
(g3
(S'S12'
I0
I1
tRp2832
(I3
S'|'
NNNI12
I1
I0
tbS'continuously'
tRp2833
I903
sg2
(g3
(S'S7'
I0
I1
tRp2834
(I3
S'|'
NNNI7
I1
I0
tbS'similar'
tRp2835
I904
sg2
(g3
(S'S6'
I0
I1
tRp2836
(I3
S'|'
NNNI6
I1
I0
tbS'called'
tRp2837
I905
sg2
(g3
(S'S6'
I0
I1
tRp2838
(I3
S'|'
NNNI6
I1
I0
tbS'aerial'
tRp2839
I909
sg2
(g3
(S'S10'
I0
I1
tRp2840
(I3
S'|'
NNNI10
I1
I0
tbS'expedition'
tRp2841
I910
sg2
(g3
(S'S6'
I0
I1
tRp2842
(I3
S'|'
NNNI6
I1
I0
tbS'single'
tRp2843
I916
sg2
(g3
(S'S1'
I0
I1
tRp2844
(I3
S'|'
NNNI1
I1
I0
tbS'%'
tRp2845
I922
sg2
(g3
(S'S5'
I0
I1
tRp2846
(I3
S'|'
NNNI5
I1
I0
tbS'peace'
tRp2847
I926
sg2
(g3
(S'S5'
I0
I1
tRp2848
(I3
S'|'
NNNI5
I1
I0
tbS'fears'
tRp2849
I961
sg2
(g3
(S'S4'
I0
I1
tRp2850
(I3
S'|'
NNNI4
I1
I0
tbS'nick'
tRp2851
I931
sg2
(g3
(S'S4'
I0
I1
tRp2852
(I3
S'|'
NNNI4
I1
I0
tbS'mock'
tRp2853
I1713
sg2
(g3
(S'S9'
I0
I1
tRp2854
(I3
S'|'
NNNI9
I1
I0
tbS'energetic'
tRp2855
I1734
sg2
(g3
(S'S10'
I0
I1
tRp2856
(I3
S'|'
NNNI10
I1
I0
tbS'beginnings'
tRp2857
I1737
sg2
(g3
(S'S8'
I0
I1
tRp2858
(I3
S'|'
NNNI8
I1
I0
tbS'problems'
tRp2859
I1753
sg2
(g3
(S'S6'
I0
I1
tRp2860
(I3
S'|'
NNNI6
I1
I0
tbS'visits'
tRp2861
I945
sg2
(g3
(S'S7'
I0
I1
tRp2862
(I3
S'|'
NNNI7
I1
I0
tbS'helping'
tRp2863
I946
sg2
(g3
(S'S3'
I0
I1
tRp2864
(I3
S'|'
NNNI3
I1
I0
tbS'ago'
tRp2865
I953
sg2
(g3
(S'S4'
I0
I1
tRp2866
(I3
S'|'
NNNI4
I1
I0
tbS'land'
tRp2867
I955
sg2
(g3
(S'S7'
I0
I1
tRp2868
(I3
S'|'
NNNI7
I1
I0
tbS'fighter'
tRp2869
I956
sg2
(g3
(S'S12'
I0
I1
tRp2870
(I3
S'|'
NNNI12
I1
I0
tbS'complicating'
tRp2871
I959
sg2
(g3
(S'S5'
I0
I1
tRp2872
(I3
S'|'
NNNI5
I1
I0
tbS'bribe'
tRp2873
I967
sg2
(g3
(S'S6'
I0
I1
tRp2874
(I3
S'|'
NNNI6
I1
I0
tbS'having'
tRp2875
I968
sg2
(g3
(S'S4'
I0
I1
tRp2876
(I3
S'|'
NNNI4
I1
I0
tbS'once'
tRp2877
I970
sg2
(g3
(S'S7'
I0
I1
tRp2878
(I3
S'|'
NNNI7
I1
I0
tbS'results'
tRp2879
I975
sg2
(g3
(S'S2'
I0
I1
tRp2880
(I3
S'|'
NNNI2
I1
I0
tbS'go'
tRp2881
I980
sg2
(g3
(S'S12'
I0
I1
tRp2882
(I3
S'|'
NNNI12
I1
I0
tbS'conservative'
tRp2883
I1742
sg2
(g3
(S'S6'
I0
I1
tRp2884
(I3
S'|'
NNNI6
I1
I0
tbS'issues'
tRp2885
I984
sg2
(g3
(S'S9'
I0
I1
tRp2886
(I3
S'|'
NNNI9
I1
I0
tbS'concerned'
tRp2887
I989
sg2
(g3
(S'S5'
I0
I1
tRp2888
(I3
S'|'
NNNI5
I1
I0
tbS'young'
tRp2889
I991
sg2
(g3
(S'S4'
I0
I1
tRp2890
(I3
S'|'
NNNI4
I1
I0
tbS'send'
tRp2891
I992
sg2
(g3
(S'S9'
I0
I1
tRp2892
(I3
S'|'
NNNI9
I1
I0
tbS'squeezing'
tRp2893
I994
sg2
(g3
(S'S5'
I0
I1
tRp2894
(I3
S'|'
NNNI5
I1
I0
tbS'helps'
tRp2895
I995
sg2
(g3
(S'S8'
I0
I1
tRp2896
(I3
S'|'
NNNI8
I1
I0
tbS'friendly'
tRp2897
I997
sg2
(g3
(S'S4'
I0
I1
tRp2898
(I3
S'|'
NNNI4
I1
I0
tbS'sent'
tRp2899
I998
sg2
(g3
(S'S6'
I0
I1
tRp2900
(I3
S'|'
NNNI6
I1
I0
tbS'pleads'
tRp2901
I1612
sg2
(g3
(S'S9'
I0
I1
tRp2902
(I3
S'|'
NNNI9
I1
I0
tbS'continues'
tRp2903
I1001
sg2
(g3
(S'S6'
I0
I1
tRp2904
(I3
S'|'
NNNI6
I1
I0
tbS'wishes'
tRp2905
I1002
sg2
(g3
(S'S7'
I0
I1
tRp2906
(I3
S'|'
NNNI7
I1
I0
tbS'putting'
tRp2907
I1003
sg2
(g3
(S'S7'
I0
I1
tRp2908
(I3
S'|'
NNNI7
I1
I0
tbS'chooses'
tRp2909
I134
sg2
(g3
(S'S7'
I0
I1
tRp2910
(I3
S'|'
NNNI7
I1
I0
tbS'telling'
tRp2911
I1004
sg2
(g3
(S'S4'
I0
I1
tRp2912
(I3
S'|'
NNNI4
I1
I0
tbS'wipe'
tRp2913
I1008
sg2
(g3
(S'S8'
I0
I1
tRp2914
(I3
S'|'
NNNI8
I1
I0
tbS'severely'
tRp2915
I1009
sg2
(g3
(S'S5'
I0
I1
tRp2916
(I3
S'|'
NNNI5
I1
I0
tbS'marry'
tRp2917
I1014
sg2
(g3
(S'S5'
I0
I1
tRp2918
(I3
S'|'
NNNI5
I1
I0
tbS'shock'
tRp2919
I255
sg2
(g3
(S'S3'
I0
I1
tRp2920
(I3
S'|'
NNNI3
I1
I0
tbS'try'
tRp2921
I309
sg2
(g3
(S'S4'
I0
I1
tRp2922
(I3
S'|'
NNNI4
I1
I0
tbS'race'
tRp2923
I318
sg2
(g3
(S'S5'
I0
I1
tRp2924
(I3
S'|'
NNNI5
I1
I0
tbS'blitz'
tRp2925
I1028
sg2
(g3
(S'S5'
I0
I1
tRp2926
(I3
S'|'
NNNI5
I1
I0
tbS'video'
tRp2927
I1032
sg2
(g3
(S'S9'
I0
I1
tRp2928
(I3
S'|'
NNNI9
I1
I0
tbS'traveling'
tRp2929
I406
sg2
(g3
(S'S6'
I0
I1
tRp2930
(I3
S'|'
NNNI6
I1
I0
tbS'picked'
tRp2931
I1034
sg2
(g3
(S'S5'
I0
I1
tRp2932
(I3
S'|'
NNNI5
I1
I0
tbS'earth'
tRp2933
I476
sg2
(g3
(S'S6'
I0
I1
tRp2934
(I3
S'|'
NNNI6
I1
I0
tbS'victor'
tRp2935
I1038
sg2
(g3
(S'S8'
I0
I1
tRp2936
(I3
S'|'
NNNI8
I1
I0
tbS'business'
tRp2937
I1752
sg2
(g3
(S'S6'
I0
I1
tRp2938
(I3
S'|'
NNNI6
I1
I0
tbS'giving'
tRp2939
I1041
sg2
(g3
(S'S7'
I0
I1
tRp2940
(I3
S'|'
NNNI7
I1
I0
tbS'colonel'
tRp2941
I1042
sg2
(g3
(S'S4'
I0
I1
tRp2942
(I3
S'|'
NNNI4
I1
I0
tbS'cell'
tRp2943
I1046
sg2
(g3
(S'S12'
I0
I1
tRp2944
(I3
S'|'
NNNI12
I1
I0
tbS'consistently'
tRp2945
I1047
sg2
(g3
(S'S7'
I0
I1
tRp2946
(I3
S'|'
NNNI7
I1
I0
tbS'waiting'
tRp2947
I1048
sg2
(g3
(S'S6'
I0
I1
tRp2948
(I3
S'|'
NNNI6
I1
I0
tbS'indian'
tRp2949
I1049
sg2
(g3
(S'S9'
I0
I1
tRp2950
(I3
S'|'
NNNI9
I1
I0
tbS'expresses'
tRp2951
I208
sg2
(g3
(S'S7'
I0
I1
tRp2952
(I3
S'|'
NNNI7
I1
I0
tbS'charade'
tRp2953
I1053
sg2
(g3
(S'S4'
I0
I1
tRp2954
(I3
S'|'
NNNI4
I1
I0
tbS'body'
tRp2955
I1055
sg2
(g3
(S'S6'
I0
I1
tRp2956
(I3
S'|'
NNNI6
I1
I0
tbS'degree'
tRp2957
I546
sg2
(g3
(S'S8'
I0
I1
tRp2958
(I3
S'|'
NNNI8
I1
I0
tbS'exchange'
tRp2959
I1059
sg2
(g3
(S'S8'
I0
I1
tRp2960
(I3
S'|'
NNNI8
I1
I0
tbS'youngest'
tRp2961
I1061
sg2
(g3
(S'S7'
I0
I1
tRp2962
(I3
S'|'
NNNI7
I1
I0
tbS'objects'
tRp2963
I1062
sg2
(g3
(S'S7'
I0
I1
tRp2964
(I3
S'|'
NNNI7
I1
I0
tbS'poverty'
tRp2965
I1063
sg2
(g3
(S'S6'
I0
I1
tRp2966
(I3
S'|'
NNNI6
I1
I0
tbS'others'
tRp2967
I602
sg2
(g3
(S'S4'
I0
I1
tRp2968
(I3
S'|'
NNNI4
I1
I0
tbS'sing'
tRp2969
I1066
sg2
(g3
(S'S5'
I0
I1
tRp2970
(I3
S'|'
NNNI5
I1
I0
tbS'great'
tRp2971
I1071
sg2
(g3
(S'S7'
I0
I1
tRp2972
(I3
S'|'
NNNI7
I1
I0
tbS'leaving'
tRp2973
I1075
sg2
(g3
(S'S8'
I0
I1
tRp2974
(I3
S'|'
NNNI8
I1
I0
tbS'suggests'
tRp2975
I1076
sg2
(g3
(S'S6'
I0
I1
tRp2976
(I3
S'|'
NNNI6
I1
I0
tbS'defeat'
tRp2977
I1078
sg2
(g3
(S'S5'
I0
I1
tRp2978
(I3
S'|'
NNNI5
I1
I0
tbS'makes'
tRp2979
I1081
sg2
(g3
(S'S4'
I0
I1
tRp2980
(I3
S'|'
NNNI4
I1
I0
tbS'ruin'
tRp2981
I484
sg2
(g3
(S'S5'
I0
I1
tRp2982
(I3
S'|'
NNNI5
I1
I0
tbS'named'
tRp2983
I1083
sg2
(g3
(S'S9'
I0
I1
tRp2984
(I3
S'|'
NNNI9
I1
I0
tbS'addresses'
tRp2985
I1085
sg2
(g3
(S'S5'
I0
I1
tRp2986
(I3
S'|'
NNNI5
I1
I0
tbS'heart'
tRp2987
I1144
sg2
(g3
(S'S3'
I0
I1
tRp2988
(I3
S'|'
NNNI3
I1
I0
tbS'win'
tRp2989
I1087
sg2
(g3
(S'S5'
I0
I1
tRp2990
(I3
S'|'
NNNI5
I1
I0
tbS'names'
tRp2991
I1091
sg2
(g3
(S'S7'
I0
I1
tRp2992
(I3
S'|'
NNNI7
I1
I0
tbS'scandal'
tRp2993
I1093
sg2
(g3
(S'S4'
I0
I1
tRp2994
(I3
S'|'
NNNI4
I1
I0
tbS'lime'
tRp2995
I1095
sg2
(g3
(S'S4'
I0
I1
tRp2996
(I3
S'|'
NNNI4
I1
I0
tbS'from'
tRp2997
I1097
sg2
(g3
(S'S5'
I0
I1
tRp2998
(I3
S'|'
NNNI5
I1
I0
tbS'hears'
tRp2999
I1145
sg2
(g3
(S'S1'
I0
I1
tRp3000
(I3
S'|'
NNNI1
I1
I0
tbS'&'
tRp3001
I1250
sg2
(g3
(S'S7'
I0
I1
tRp3002
(I3
S'|'
NNNI7
I1
I0
tbS'remains'
tRp3003
I1100
sg2
(g3
(S'S7'
I0
I1
tRp3004
(I3
S'|'
NNNI7
I1
I0
tbS'illegal'
tRp3005
I1101
sg2
(g3
(S'S4'
I0
I1
tRp3006
(I3
S'|'
NNNI4
I1
I0
tbS'next'
tRp3007
I855
sg2
(g3
(S'S6'
I0
I1
tRp3008
(I3
S'|'
NNNI6
I1
I0
tbS'butler'
tRp3009
I1108
sg2
(g3
(S'S10'
I0
I1
tRp3010
(I3
S'|'
NNNI10
I1
I0
tbS'themselves'
tRp3011
I1109
sg2
(g3
(S'S6'
I0
I1
tRp3012
(I3
S'|'
NNNI6
I1
I0
tbS'clever'
tRp3013
I1114
sg2
(g3
(S'S9'
I0
I1
tRp3014
(I3
S'|'
NNNI9
I1
I0
tbS'snatching'
tRp3015
I1115
sg2
(g3
(S'S7'
I0
I1
tRp3016
(I3
S'|'
NNNI7
I1
I0
tbS'becomes'
tRp3017
I1118
sg2
(g3
(S'S8'
I0
I1
tRp3018
(I3
S'|'
NNNI8
I1
I0
tbS'musician'
tRp3019
I1119
sg2
(g3
(S'S6'
I0
I1
tRp3020
(I3
S'|'
NNNI6
I1
I0
tbS'sister'
tRp3021
I1760
sg2
(g3
(S'S9'
I0
I1
tRp3022
(I3
S'|'
NNNI9
I1
I0
tbS'cooperate'
tRp3023
I950
sg2
(g3
(S'S5'
I0
I1
tRp3024
(I3
S'|'
NNNI5
I1
I0
tbS'train'
tRp3025
I1123
sg2
(g3
(S'S4'
I0
I1
tRp3026
(I3
S'|'
NNNI4
I1
I0
tbS'baby'
tRp3027
I1124
sg2
(g3
(S'S5'
I0
I1
tRp3028
(I3
S'|'
NNNI5
I1
I0
tbS'women'
tRp3029
I1127
sg2
(g3
(S'S5'
I0
I1
tRp3030
(I3
S'|'
NNNI5
I1
I0
tbS'1980s'
tRp3031
I1150
sg2
(g3
(S'S4'
I0
I1
tRp3032
(I3
S'|'
NNNI4
I1
I0
tbS'this'
tRp3033
I1130
sg2
(g3
(S'S4'
I0
I1
tRp3034
(I3
S'|'
NNNI4
I1
I0
tbS'ride'
tRp3035
I1132
sg2
(g3
(S'S8'
I0
I1
tRp3036
(I3
S'|'
NNNI8
I1
I0
tbS'cherubic'
tRp3037
I1136
sg2
(g3
(S'S7'
I0
I1
tRp3038
(I3
S'|'
NNNI7
I1
I0
tbS'prompts'
tRp3039
I1137
sg2
(g3
(S'S7'
I0
I1
tRp3040
(I3
S'|'
NNNI7
I1
I0
tbS'obvious'
tRp3041
I45
sg2
(g3
(S'S8'
I0
I1
tRp3042
(I3
S'|'
NNNI8
I1
I0
tbS'servants'
tRp3043
I1140
sg2
(g3
(S'S4'
I0
I1
tRp3044
(I3
S'|'
NNNI4
I1
I0
tbS'meet'
tRp3045
I1665
sg2
(g3
(S'S5'
I0
I1
tRp3046
(I3
S'|'
NNNI5
I1
I0
tbS'point'
tRp3047
I1683
sg2
(g3
(S'S7'
I0
I1
tRp3048
(I3
S'|'
NNNI7
I1
I0
tbS'escapes'
tRp3049
I1146
sg2
(g3
(S'S7'
I0
I1
tRp3050
(I3
S'|'
NNNI7
I1
I0
tbS'process'
tRp3051
I1147
sg2
(g3
(S'S9'
I0
I1
tRp3052
(I3
S'|'
NNNI9
I1
I0
tbS'something'
tRp3053
I1152
sg2
(g3
(S'S4'
I0
I1
tRp3054
(I3
S'|'
NNNI4
I1
I0
tbS'rape'
tRp3055
I1155
sg2
(g3
(S'S6'
I0
I1
tRp3056
(I3
S'|'
NNNI6
I1
I0
tbS'united'
tRp3057
I1156
sg2
(g3
(S'S7'
I0
I1
tRp3058
(I3
S'|'
NNNI7
I1
I0
tbS'regains'
tRp3059
I1157
sg2
(g3
(S'S4'
I0
I1
tRp3060
(I3
S'|'
NNNI4
I1
I0
tbS'lame'
tRp3061
I1158
sg2
(g3
(S'S3'
I0
I1
tRp3062
(I3
S'|'
NNNI3
I1
I0
tbS'six'
tRp3063
I1159
sg2
(g3
(S'S7'
I0
I1
tRp3064
(I3
S'|'
NNNI7
I1
I0
tbS'located'
tRp3065
I1161
sg2
(g3
(S'S6'
I0
I1
tRp3066
(I3
S'|'
NNNI6
I1
I0
tbS'unites'
tRp3067
I1164
sg2
(g3
(S'S6'
I0
I1
tRp3068
(I3
S'|'
NNNI6
I1
I0
tbS'forest'
tRp3069
I1165
sg2
(g3
(S'S7'
I0
I1
tRp3070
(I3
S'|'
NNNI7
I1
I0
tbS'immoral'
tRp3071
I1169
sg2
(g3
(S'S6'
I0
I1
tRp3072
(I3
S'|'
NNNI6
I1
I0
tbS'watery'
tRp3073
I1171
sg2
(g3
(S'S9'
I0
I1
tRp3074
(I3
S'|'
NNNI9
I1
I0
tbS'furiously'
tRp3075
I1174
sg2
(g3
(S'S8'
I0
I1
tRp3076
(I3
S'|'
NNNI8
I1
I0
tbS'maternal'
tRp3077
I1175
sg2
(g3
(S'S4'
I0
I1
tRp3078
(I3
S'|'
NNNI4
I1
I0
tbS'farm'
tRp3079
I1176
sg2
(g3
(S'S7'
I0
I1
tRp3080
(I3
S'|'
NNNI7
I1
I0
tbS'detests'
tRp3081
I1883
sg2
(g3
(S'S1'
I0
I1
tRp3082
(I3
S'|'
NNNI1
I1
I0
tbS'3'
tRp3083
I1509
sg2
(g3
(S'S4'
I0
I1
tRp3084
(I3
S'|'
NNNI4
I1
I0
tbS'insp'
tRp3085
I1179
sg2
(g3
(S'S8'
I0
I1
tRp3086
(I3
S'|'
NNNI8
I1
I0
tbS'realized'
tRp3087
I1188
sg2
(g3
(S'S7'
I0
I1
tRp3088
(I3
S'|'
NNNI7
I1
I0
tbS'chasing'
tRp3089
I1364
sg2
(g3
(S'S3'
I0
I1
tRp3090
(I3
S'|'
NNNI3
I1
I0
tbS'sit'
tRp3091
I1192
sg2
(g3
(S'S5'
I0
I1
tRp3092
(I3
S'|'
NNNI5
I1
I0
tbS'budge'
tRp3093
I1193
sg2
(g3
(S'S5'
I0
I1
tRp3094
(I3
S'|'
NNNI5
I1
I0
tbS'chief'
tRp3095
I1195
sg2
(g3
(S'S8'
I0
I1
tRp3096
(I3
S'|'
NNNI8
I1
I0
tbS'realizes'
tRp3097
I1197
sg2
(g3
(S'S6'
I0
I1
tRp3098
(I3
S'|'
NNNI6
I1
I0
tbS'agenda'
tRp3099
I1198
sg2
(g3
(S'S7'
I0
I1
tRp3100
(I3
S'|'
NNNI7
I1
I0
tbS'furious'
tRp3101
I1270
sg2
(g3
(S'S12'
I0
I1
tRp3102
(I3
S'|'
NNNI12
I1
I0
tbS'subsequently'
tRp3103
I1200
sg2
(g3
(S'S8'
I0
I1
tRp3104
(I3
S'|'
NNNI8
I1
I0
tbS'in-house'
tRp3105
I1205
sg2
(g3
(S'S4'
I0
I1
tRp3106
(I3
S'|'
NNNI4
I1
I0
tbS'move'
tRp3107
I1206
sg2
(g3
(S'S7'
I0
I1
tRp3108
(I3
S'|'
NNNI7
I1
I0
tbS'widowed'
tRp3109
I815
sg2
(g3
(S'S6'
I0
I1
tRp3110
(I3
S'|'
NNNI6
I1
I0
tbS'whilst'
tRp3111
I1209
sg2
(g3
(S'S9'
I0
I1
tRp3112
(I3
S'|'
NNNI9
I1
I0
tbS'repentant'
tRp3113
I1210
sg2
(g3
(S'S9'
I0
I1
tRp3114
(I3
S'|'
NNNI9
I1
I0
tbS'including'
tRp3115
I1212
sg2
(g3
(S'S5'
I0
I1
tRp3116
(I3
S'|'
NNNI5
I1
I0
tbS'looks'
tRp3117
I1213
sg2
(g3
(S'S6'
I0
I1
tRp3118
(I3
S'|'
NNNI6
I1
I0
tbS'cruise'
tRp3119
I1214
sg2
(g3
(S'S11'
I0
I1
tRp3120
(I3
S'|'
NNNI11
I1
I0
tbS'anonymously'
tRp3121
I1218
sg2
(g3
(S'S5'
I0
I1
tRp3122
(I3
S'|'
NNNI5
I1
I0
tbS'outer'
tRp3123
I1220
sg2
(g3
(S'S6'
I0
I1
tRp3124
(I3
S'|'
NNNI6
I1
I0
tbS'masses'
tRp3125
I1222
sg2
(g3
(S'S5'
I0
I1
tRp3126
(I3
S'|'
NNNI5
I1
I0
tbS'labor'
tRp3127
I1225
sg2
(g3
(S'S8'
I0
I1
tRp3128
(I3
S'|'
NNNI8
I1
I0
tbS'meantime'
tRp3129
I1226
sg2
(g3
(S'S6'
I0
I1
tRp3130
(I3
S'|'
NNNI6
I1
I0
tbS'choose'
tRp3131
I1229
sg2
(g3
(S'S8'
I0
I1
tRp3132
(I3
S'|'
NNNI8
I1
I0
tbS'criminal'
tRp3133
I1232
sg2
(g3
(S'S3'
I0
I1
tRp3134
(I3
S'|'
NNNI3
I1
I0
tbS'dad'
tRp3135
I1234
sg2
(g3
(S'S5'
I0
I1
tRp3136
(I3
S'|'
NNNI5
I1
I0
tbS'crash'
tRp3137
I1236
sg2
(g3
(S'S8'
I0
I1
tRp3138
(I3
S'|'
NNNI8
I1
I0
tbS're-enter'
tRp3139
I1237
sg2
(g3
(S'S4'
I0
I1
tRp3140
(I3
S'|'
NNNI4
I1
I0
tbS'runs'
tRp3141
I514
sg2
(g3
(S'S7'
I0
I1
tRp3142
(I3
S'|'
NNNI7
I1
I0
tbS'cutting'
tRp3143
I1243
sg2
(g3
(S'S5'
I0
I1
tRp3144
(I3
S'|'
NNNI5
I1
I0
tbS'hands'
tRp3145
I1670
sg2
(g3
(S'S5'
I0
I1
tRp3146
(I3
S'|'
NNNI5
I1
I0
tbS'front'
tRp3147
I1673
sg2
(g3
(S'S9'
I0
I1
tRp3148
(I3
S'|'
NNNI9
I1
I0
tbS'nurturing'
tRp3149
I1246
sg2
(g3
(S'S7'
I0
I1
tRp3150
(I3
S'|'
NNNI7
I1
I0
tbS'realize'
tRp3151
I938
sg2
(g3
(S'S10'
I0
I1
tRp3152
(I3
S'|'
NNNI10
I1
I0
tbS'university'
tRp3153
I1256
sg2
(g3
(S'S5'
I0
I1
tRp3154
(I3
S'|'
NNNI5
I1
I0
tbS'truth'
tRp3155
I1261
sg2
(g3
(S'S6'
I0
I1
tRp3156
(I3
S'|'
NNNI6
I1
I0
tbS'earned'
tRp3157
I1663
sg2
(g3
(S'S5'
I0
I1
tRp3158
(I3
S'|'
NNNI5
I1
I0
tbS'doing'
tRp3159
I1266
sg2
(g3
(S'S7'
I0
I1
tRp3160
(I3
S'|'
NNNI7
I1
I0
tbS'related'
tRp3161
I1268
sg2
(g3
(S'S7'
I0
I1
tRp3162
(I3
S'|'
NNNI7
I1
I0
tbS'society'
tRp3163
I1271
sg2
(g3
(S'S9'
I0
I1
tRp3164
(I3
S'|'
NNNI9
I1
I0
tbS'collegian'
tRp3165
I1273
sg2
(g3
(S'S9'
I0
I1
tRp3166
(I3
S'|'
NNNI9
I1
I0
tbS'satisfied'
tRp3167
I1467
sg2
(g3
(S'S7'
I0
I1
tRp3168
(I3
S'|'
NNNI7
I1
I0
tbS'witness'
tRp3169
I1277
sg2
(g3
(S'S3'
I0
I1
tRp3170
(I3
S'|'
NNNI3
I1
I0
tbS'out'
tRp3171
I1278
sg2
(g3
(S'S8'
I0
I1
tRp3172
(I3
S'|'
NNNI8
I1
I0
tbS'respects'
tRp3173
I1744
sg2
(g3
(S'S1'
I0
I1
tRp3174
(I3
S'|'
NNNI1
I1
I0
tbS"'"
tRp3175
I1281
sg2
(g3
(S'S7'
I0
I1
tRp3176
(I3
S'|'
NNNI7
I1
I0
tbS'confess'
tRp3177
I1886
sg2
(g3
(S'S8'
I0
I1
tRp3178
(I3
S'|'
NNNI8
I1
I0
tbS'activist'
tRp3179
I21
sg2
(g3
(S'S6'
I0
I1
tRp3180
(I3
S'|'
NNNI6
I1
I0
tbS'fondly'
tRp3181
I1072
sg2
(g3
(S'S3'
I0
I1
tRp3182
(I3
S'|'
NNNI3
I1
I0
tbS'red'
tRp3183
I1291
sg2
(g3
(S'S11'
I0
I1
tRp3184
(I3
S'|'
NNNI11
I1
I0
tbS'humiliating'
tRp3185
I1296
sg2
(g3
(S'S8'
I0
I1
tRp3186
(I3
S'|'
NNNI8
I1
I0
tbS'transfer'
tRp3187
I1795
sg2
(g3
(S'S10'
I0
I1
tRp3188
(I3
S'|'
NNNI10
I1
I0
tbS'approaches'
tRp3189
I1299
sg2
(g3
(S'S11'
I0
I1
tRp3190
(I3
S'|'
NNNI11
I1
I0
tbS'step-mother'
tRp3191
I211
sg2
(g3
(S'S9'
I0
I1
tRp3192
(I3
S'|'
NNNI9
I1
I0
tbS'widowhood'
tRp3193
I1307
sg2
(g3
(S'S5'
I0
I1
tRp3194
(I3
S'|'
NNNI5
I1
I0
tbS'could'
tRp3195
I1309
sg2
(g3
(S'S5'
I0
I1
tRp3196
(I3
S'|'
NNNI5
I1
I0
tbS'times'
tRp3197
I191
sg2
(g3
(S'S12'
I0
I1
tRp3198
(I3
S'|'
NNNI12
I1
I0
tbS'conversation'
tRp3199
I983
sg2
(g3
(S'S6'
I0
I1
tRp3200
(I3
S'|'
NNNI6
I1
I0
tbS'allied'
tRp3201
I1315
sg2
(g3
(S'S12'
I0
I1
tRp3202
(I3
S'|'
NNNI12
I1
I0
tbS'protagonists'
tRp3203
I1317
sg2
(g3
(S'S11'
I0
I1
tRp3204
(I3
S'|'
NNNI11
I1
I0
tbS'prospective'
tRp3205
I1322
sg2
(g3
(S'S8'
I0
I1
tRp3206
(I3
S'|'
NNNI8
I1
I0
tbS'succeeds'
tRp3207
I1324
sg2
(g3
(S'S7'
I0
I1
tRp3208
(I3
S'|'
NNNI7
I1
I0
tbS'confuse'
tRp3209
I1326
sg2
(g3
(S'S5'
I0
I1
tRp3210
(I3
S'|'
NNNI5
I1
I0
tbS'scene'
tRp3211
I1327
sg2
(g3
(S'S7'
I0
I1
tRp3212
(I3
S'|'
NNNI7
I1
I0
tbS'reaches'
tRp3213
I1328
sg2
(g3
(S'S5'
I0
I1
tRp3214
(I3
S'|'
NNNI5
I1
I0
tbS'mocks'
tRp3215
I1330
sg2
(g3
(S'S10'
I0
I1
tRp3216
(I3
S'|'
NNNI10
I1
I0
tbS'rusticated'
tRp3217
I299
sg2
(g3
(S'S5'
I0
I1
tRp3218
(I3
S'|'
NNNI5
I1
I0
tbS'start'
tRp3219
I1799
sg2
(g3
(S'S6'
I0
I1
tRp3220
(I3
S'|'
NNNI6
I1
I0
tbS'chased'
tRp3221
I1343
sg2
(g3
(S'S7'
I0
I1
tRp3222
(I3
S'|'
NNNI7
I1
I0
tbS'adopted'
tRp3223
I1344
sg2
(g3
(S'S6'
I0
I1
tRp3224
(I3
S'|'
NNNI6
I1
I0
tbS'inmate'
tRp3225
I1346
sg2
(g3
(S'S5'
I0
I1
tRp3226
(I3
S'|'
NNNI5
I1
I0
tbS'their'
tRp3227
I1347
sg2
(g3
(S'S6'
I0
I1
tRp3228
(I3
S'|'
NNNI6
I1
I0
tbS'attack'
tRp3229
I371
sg2
(g3
(S'S6'
I0
I1
tRp3230
(I3
S'|'
NNNI6
I1
I0
tbS'chases'
tRp3231
I1350
sg2
(g3
(S'S9'
I0
I1
tRp3232
(I3
S'|'
NNNI9
I1
I0
tbS'interests'
tRp3233
I1353
sg2
(g3
(S'S5'
I0
I1
tRp3234
(I3
S'|'
NNNI5
I1
I0
tbS'shell'
tRp3235
I416
sg2
(g3
(S'S7'
I0
I1
tRp3236
(I3
S'|'
NNNI7
I1
I0
tbS'stomach'
tRp3237
I1356
sg2
(g3
(S'S7'
I0
I1
tRp3238
(I3
S'|'
NNNI7
I1
I0
tbS'acquire'
tRp3239
I1360
sg2
(g3
(S'S7'
I0
I1
tRp3240
(I3
S'|'
NNNI7
I1
I0
tbS'herself'
tRp3241
I1365
sg2
(g3
(S'S9'
I0
I1
tRp3242
(I3
S'|'
NNNI9
I1
I0
tbS'completes'
tRp3243
I487
sg2
(g3
(S'S5'
I0
I1
tRp3244
(I3
S'|'
NNNI5
I1
I0
tbS'loved'
tRp3245
I1368
sg2
(g3
(S'S6'
I0
I1
tRp3246
(I3
S'|'
NNNI6
I1
I0
tbS'sudhir'
tRp3247
I1372
sg2
(g3
(S'S8'
I0
I1
tRp3248
(I3
S'|'
NNNI8
I1
I0
tbS'tortured'
tRp3249
I1374
sg2
(g3
(S'S5'
I0
I1
tRp3250
(I3
S'|'
NNNI5
I1
I0
tbS'loves'
tRp3251
I1376
sg2
(g3
(S'S5'
I0
I1
tRp3252
(I3
S'|'
NNNI5
I1
I0
tbS'lover'
tRp3253
I1377
sg2
(g3
(S'S8'
I0
I1
tRp3254
(I3
S'|'
NNNI8
I1
I0
tbS'devotion'
tRp3255
I1378
sg2
(g3
(S'S6'
I0
I1
tRp3256
(I3
S'|'
NNNI6
I1
I0
tbS'faints'
tRp3257
I1518
sg2
(g3
(S'S5'
I0
I1
tRp3258
(I3
S'|'
NNNI5
I1
I0
tbS'false'
tRp3259
I1383
sg2
(g3
(S'S7'
I0
I1
tRp3260
(I3
S'|'
NNNI7
I1
I0
tbS'poisons'
tRp3261
I1386
sg2
(g3
(S'S11'
I0
I1
tRp3262
(I3
S'|'
NNNI11
I1
I0
tbS'comfortable'
tRp3263
I1388
sg2
(g3
(S'S4'
I0
I1
tRp3264
(I3
S'|'
NNNI4
I1
I0
tbS'have'
tRp3265
I1390
sg2
(g3
(S'S4'
I0
I1
tRp3266
(I3
S'|'
NNNI4
I1
I0
tbS'need'
tRp3267
I678
sg2
(g3
(S'S6'
I0
I1
tRp3268
(I3
S'|'
NNNI6
I1
I0
tbS'afraid'
tRp3269
I1396
sg2
(g3
(S'S6'
I0
I1
tRp3270
(I3
S'|'
NNNI6
I1
I0
tbS'dishes'
tRp3271
I1397
sg2
(g3
(S'S6'
I0
I1
tRp3272
(I3
S'|'
NNNI6
I1
I0
tbS'agency'
tRp3273
I1399
sg2
(g3
(S'S3'
I0
I1
tRp3274
(I3
S'|'
NNNI3
I1
I0
tbS'mid'
tRp3275
I736
sg2
(g3
(S'S9'
I0
I1
tRp3276
(I3
S'|'
NNNI9
I1
I0
tbS'relatives'
tRp3277
I1404
sg2
(g3
(S'S5'
I0
I1
tRp3278
(I3
S'|'
NNNI5
I1
I0
tbS'which'
tRp3279
I1407
sg2
(g3
(S'S13'
I0
I1
tRp3280
(I3
S'|'
NNNI13
I1
I0
tbS'maharashtrian'
tRp3281
I1408
sg2
(g3
(S'S2'
I0
I1
tRp3282
(I3
S'|'
NNNI2
I1
I0
tbS'so'
tRp3283
I1409
sg2
(g3
(S'S5'
I0
I1
tRp3284
(I3
S'|'
NNNI5
I1
I0
tbS'singh'
tRp3285
I1410
sg2
(g3
(S'S7'
I0
I1
tRp3286
(I3
S'|'
NNNI7
I1
I0
tbS'pursues'
tRp3287
I1413
sg2
(g3
(S'S6'
I0
I1
tRp3288
(I3
S'|'
NNNI6
I1
I0
tbS'unless'
tRp3289
I1415
sg2
(g3
(S'S6'
I0
I1
tRp3290
(I3
S'|'
NNNI6
I1
I0
tbS'combat'
tRp3291
I1416
sg2
(g3
(S'S3'
I0
I1
tRp3292
(I3
S'|'
NNNI3
I1
I0
tbS'who'
tRp3293
I819
sg2
(g3
(S'S10'
I0
I1
tRp3294
(I3
S'|'
NNNI10
I1
I0
tbS'intentions'
tRp3295
I1420
sg2
(g3
(S'S9'
I0
I1
tRp3296
(I3
S'|'
NNNI9
I1
I0
tbS'vengeance'
tRp3297
I1421
sg2
(g3
(S'S8'
I0
I1
tRp3298
(I3
S'|'
NNNI8
I1
I0
tbS'prisoner'
tRp3299
I1424
sg2
(g3
(S'S9'
I0
I1
tRp3300
(I3
S'|'
NNNI9
I1
I0
tbS'ambitions'
tRp3301
I1427
sg2
(g3
(S'S5'
I0
I1
tRp3302
(I3
S'|'
NNNI5
I1
I0
tbS'upset'
tRp3303
I413
sg2
(g3
(S'S4'
I0
I1
tRp3304
(I3
S'|'
NNNI4
I1
I0
tbS'face'
tRp3305
I921
sg2
(g3
(S'S6'
I0
I1
tRp3306
(I3
S'|'
NNNI6
I1
I0
tbS'looked'
tRp3307
I1431
sg2
(g3
(S'S11'
I0
I1
tRp3308
(I3
S'|'
NNNI11
I1
I0
tbS'businessman'
tRp3309
I948
sg2
(g3
(S'S3'
I0
I1
tRp3310
(I3
S'|'
NNNI3
I1
I0
tbS'son'
tRp3311
I1437
sg2
(g3
(S'S6'
I0
I1
tRp3312
(I3
S'|'
NNNI6
I1
I0
tbS'affair'
tRp3313
I1438
sg2
(g3
(S'S14'
I0
I1
tRp3314
(I3
S'|'
NNNI14
I1
I0
tbS'sisters-in-law'
tRp3315
I1439
sg2
(g3
(S'S9'
I0
I1
tRp3316
(I3
S'|'
NNNI9
I1
I0
tbS'supported'
tRp3317
I1000
sg2
(g3
(S'S5'
I0
I1
tRp3318
(I3
S'|'
NNNI5
I1
I0
tbS'bring'
tRp3319
I1441
sg2
(g3
(S'S6'
I0
I1
tRp3320
(I3
S'|'
NNNI6
I1
I0
tbS'molest'
tRp3321
I1037
sg2
(g3
(S'S6'
I0
I1
tRp3322
(I3
S'|'
NNNI6
I1
I0
tbS'agrees'
tRp3323
I1444
sg2
(g3
(S'S9'
I0
I1
tRp3324
(I3
S'|'
NNNI9
I1
I0
tbS'knowledge'
tRp3325
I1447
sg2
(g3
(S'S6'
I0
I1
tRp3326
(I3
S'|'
NNNI6
I1
I0
tbS'mumbai'
tRp3327
I1448
sg2
(g3
(S'S6'
I0
I1
tRp3328
(I3
S'|'
NNNI6
I1
I0
tbS'should'
tRp3329
I1450
sg2
(g3
(S'S8'
I0
I1
tRp3330
(I3
S'|'
NNNI8
I1
I0
tbS'employee'
tRp3331
I1453
sg2
(g3
(S'S8'
I0
I1
tRp3332
(I3
S'|'
NNNI8
I1
I0
tbS'employed'
tRp3333
I1454
sg2
(g3
(S'S5'
I0
I1
tRp3334
(I3
S'|'
NNNI5
I1
I0
tbS'piano'
tRp3335
I1455
sg2
(g3
(S'S8'
I0
I1
tRp3336
(I3
S'|'
NNNI8
I1
I0
tbS'handsome'
tRp3337
I1816
sg2
(g3
(S'S5'
I0
I1
tRp3338
(I3
S'|'
NNNI5
I1
I0
tbS'local'
tRp3339
I1457
sg2
(g3
(S'S9'
I0
I1
tRp3340
(I3
S'|'
NNNI9
I1
I0
tbS'regularly'
tRp3341
I1458
sg2
(g3
(S'S7'
I0
I1
tRp3342
(I3
S'|'
NNNI7
I1
I0
tbS'jackpot'
tRp3343
I1459
sg2
(g3
(S'S5'
I0
I1
tRp3344
(I3
S'|'
NNNI5
I1
I0
tbS'dotes'
tRp3345
I1825
sg2
(g3
(S'S5'
I0
I1
tRp3346
(I3
S'|'
NNNI5
I1
I0
tbS'means'
tRp3347
I1590
sg2
(g3
(S'S4'
I0
I1
tRp3348
(I3
S'|'
NNNI4
I1
I0
tbS'beat'
tRp3349
I1812
sg2
(g3
(S'S11'
I0
I1
tRp3350
(I3
S'|'
NNNI11
I1
I0
tbS'photography'
tRp3351
I1464
sg2
(g3
(S'S7'
I0
I1
tRp3352
(I3
S'|'
NNNI7
I1
I0
tbS'fallout'
tRp3353
I1203
sg2
(g3
(S'S10'
I0
I1
tRp3354
(I3
S'|'
NNNI10
I1
I0
tbS'magistrate'
tRp3355
I1470
sg2
(g3
(S'S6'
I0
I1
tRp3356
(I3
S'|'
NNNI6
I1
I0
tbS'coaxes'
tRp3357
I1257
sg2
(g3
(S'S14'
I0
I1
tRp3358
(I3
S'|'
NNNI14
I1
I0
tbS'misunderstands'
tRp3359
I1474
sg2
(g3
(S'S7'
I0
I1
tRp3360
(I3
S'|'
NNNI7
I1
I0
tbS'married'
tRp3361
I1475
sg2
(g3
(S'S7'
I0
I1
tRp3362
(I3
S'|'
NNNI7
I1
I0
tbS'calling'
tRp3363
I1477
sg2
(g3
(S'S3'
I0
I1
tRp3364
(I3
S'|'
NNNI3
I1
I0
tbS'she'
tRp3365
I1479
sg2
(g3
(S'S10'
I0
I1
tRp3366
(I3
S'|'
NNNI10
I1
I0
tbS'allegation'
tRp3367
I1480
sg2
(g3
(S'S7'
I0
I1
tRp3368
(I3
S'|'
NNNI7
I1
I0
tbS'marries'
tRp3369
I1482
sg2
(g3
(S'S4'
I0
I1
tRp3370
(I3
S'|'
NNNI4
I1
I0
tbS'view'
tRp3371
I1318
sg2
(g3
(S'S6'
I0
I1
tRp3372
(I3
S'|'
NNNI6
I1
I0
tbS'europe'
tRp3373
I1863
sg2
(g3
(S'S7'
I0
I1
tRp3374
(I3
S'|'
NNNI7
I1
I0
tbS'accuses'
tRp3375
I1487
sg2
(g3
(S'S11'
I0
I1
tRp3376
(I3
S'|'
NNNI11
I1
I0
tbS'humiliation'
tRp3377
I1488
sg2
(g3
(S'S7'
I0
I1
tRp3378
(I3
S'|'
NNNI7
I1
I0
tbS'prayers'
tRp3379
I1489
sg2
(g3
(S'S8'
I0
I1
tRp3380
(I3
S'|'
NNNI8
I1
I0
tbS'showdown'
tRp3381
I1355
sg2
(g3
(S'S4'
I0
I1
tRp3382
(I3
S'|'
NNNI4
I1
I0
tbS'lazy'
tRp3383
I1491
sg2
(g3
(S'S8'
I0
I1
tRp3384
(I3
S'|'
NNNI8
I1
I0
tbS'computer'
tRp3385
I856
sg2
(g3
(S'S8'
I0
I1
tRp3386
(I3
S'|'
NNNI8
I1
I0
tbS'operated'
tRp3387
I1498
sg2
(g3
(S'S6'
I0
I1
tRp3388
(I3
S'|'
NNNI6
I1
I0
tbS'danger'
tRp3389
I1502
sg2
(g3
(S'S10'
I0
I1
tRp3390
(I3
S'|'
NNNI10
I1
I0
tbS'attempting'
tRp3391
I1504
sg2
(g3
(S'S7'
I0
I1
tRp3392
(I3
S'|'
NNNI7
I1
I0
tbS'nuclear'
tRp3393
I1506
sg2
(g3
(S'S12'
I0
I1
tRp3394
(I3
S'|'
NNNI12
I1
I0
tbS'difficulties'
tRp3395
I1876
sg2
(g3
(S'S9'
I0
I1
tRp3396
(I3
S'|'
NNNI9
I1
I0
tbS'correctly'
tRp3397
I1511
sg2
(g3
(S'S7'
I0
I1
tRp3398
(I3
S'|'
NNNI7
I1
I0
tbS'neither'
tRp3399
I1513
sg2
(g3
(S'S10'
I0
I1
tRp3400
(I3
S'|'
NNNI10
I1
I0
tbS'frustrated'
tRp3401
I1514
sg2
(g3
(S'S6'
I0
I1
tRp3402
(I3
S'|'
NNNI6
I1
I0
tbS'bought'
tRp3403
I1516
sg2
(g3
(S'S4'
I0
I1
tRp3404
(I3
S'|'
NNNI4
I1
I0
tbS'ends'
tRp3405
I1517
sg2
(g3
(S'S7'
I0
I1
tRp3406
(I3
S'|'
NNNI7
I1
I0
tbS'opening'
tRp3407
I1521
sg2
(g3
(S'S7'
I0
I1
tRp3408
(I3
S'|'
NNNI7
I1
I0
tbS'deliver'
tRp3409
I1523
sg2
(g3
(S'S3'
I0
I1
tRp3410
(I3
S'|'
NNNI3
I1
I0
tbS'job'
tRp3411
I1526
sg2
(g3
(S'S3'
I0
I1
tRp3412
(I3
S'|'
NNNI3
I1
I0
tbS'key'
tRp3413
I1527
sg2
(g3
(S'S8'
I0
I1
tRp3414
(I3
S'|'
NNNI8
I1
I0
tbS'approval'
tRp3415
I888
sg2
(g3
(S'S10'
I0
I1
tRp3416
(I3
S'|'
NNNI10
I1
I0
tbS'nightmares'
tRp3417
I1530
sg2
(g3
(S'S4'
I0
I1
tRp3418
(I3
S'|'
NNNI4
I1
I0
tbS'hits'
tRp3419
I1531
sg2
(g3
(S'S7'
I0
I1
tRp3420
(I3
S'|'
NNNI7
I1
I0
tbS'instant'
tRp3421
I1532
sg2
(g3
(S'S6'
I0
I1
tRp3422
(I3
S'|'
NNNI6
I1
I0
tbS'career'
tRp3423
I1533
sg2
(g3
(S'S6'
I0
I1
tRp3424
(I3
S'|'
NNNI6
I1
I0
tbS'taking'
tRp3425
I1535
sg2
(g3
(S'S8'
I0
I1
tRp3426
(I3
S'|'
NNNI8
I1
I0
tbS'aircraft'
tRp3427
I1536
sg2
(g3
(S'S3'
I0
I1
tRp3428
(I3
S'|'
NNNI3
I1
I0
tbS'etc'
tRp3429
I1537
sg2
(g3
(S'S7'
I0
I1
tRp3430
(I3
S'|'
NNNI7
I1
I0
tbS'passing'
tRp3431
I1540
sg2
(g3
(S'S7'
I0
I1
tRp3432
(I3
S'|'
NNNI7
I1
I0
tbS'invites'
tRp3433
I1541
sg2
(g3
(S'S10'
I0
I1
tRp3434
(I3
S'|'
NNNI10
I1
I0
tbS'passers-by'
tRp3435
I1546
sg2
(g3
(S'S7'
I0
I1
tRp3436
(I3
S'|'
NNNI7
I1
I0
tbS'teasing'
tRp3437
I1547
sg2
(g3
(S'S6'
I0
I1
tRp3438
(I3
S'|'
NNNI6
I1
I0
tbS'reborn'
tRp3439
I1550
sg2
(g3
(S'S4'
I0
I1
tRp3440
(I3
S'|'
NNNI4
I1
I0
tbS'news'
tRp3441
I573
sg2
(g3
(S'S7'
I0
I1
tRp3442
(I3
S'|'
NNNI7
I1
I0
tbS'respect'
tRp3443
I97
sg2
(g3
(S'S7'
I0
I1
tRp3444
(I3
S'|'
NNNI7
I1
I0
tbS'winning'
tRp3445
I1556
sg2
(g3
(S'S5'
I0
I1
tRp3446
(I3
S'|'
NNNI5
I1
I0
tbS'hindu'
tRp3447
I1563
sg2
(g3
(S'S8'
I0
I1
tRp3448
(I3
S'|'
NNNI8
I1
I0
tbS'unspoken'
tRp3449
I1565
sg2
(g3
(S'S6'
I0
I1
tRp3450
(I3
S'|'
NNNI6
I1
I0
tbS'slowly'
tRp3451
I1566
sg2
(g3
(S'S5'
I0
I1
tRp3452
(I3
S'|'
NNNI5
I1
I0
tbS'treat'
tRp3453
I1567
sg2
(g3
(S'S8'
I0
I1
tRp3454
(I3
S'|'
NNNI8
I1
I0
tbS'proposal'
tRp3455
I1569
sg2
(g3
(S'S7'
I0
I1
tRp3456
(I3
S'|'
NNNI7
I1
I0
tbS'trinity'
tRp3457
I1570
sg2
(g3
(S'S8'
I0
I1
tRp3458
(I3
S'|'
NNNI8
I1
I0
tbS'finishes'
tRp3459
I1573
sg2
(g3
(S'S9'
I0
I1
tRp3460
(I3
S'|'
NNNI9
I1
I0
tbS'stationed'
tRp3461
I1853
sg2
(g3
(S'S7'
I0
I1
tRp3462
(I3
S'|'
NNNI7
I1
I0
tbS'protect'
tRp3463
I1576
sg2
(g3
(S'S8'
I0
I1
tRp3464
(I3
S'|'
NNNI8
I1
I0
tbS'finished'
tRp3465
I1577
sg2
(g3
(S'S5'
I0
I1
tRp3466
(I3
S'|'
NNNI5
I1
I0
tbS'kicks'
tRp3467
I1580
sg2
(g3
(S'S2'
I0
I1
tRp3468
(I3
S'|'
NNNI2
I1
I0
tbS'an'
tRp3469
I1840
sg2
(g3
(S'S9'
I0
I1
tRp3470
(I3
S'|'
NNNI9
I1
I0
tbS'shameless'
tRp3471
I22
sg2
(g3
(S'S6'
I0
I1
tRp3472
(I3
S'|'
NNNI6
I1
I0
tbS'banish'
tRp3473
I26
sg2
(g3
(S'S7'
I0
I1
tRp3474
(I3
S'|'
NNNI7
I1
I0
tbS'holiday'
tRp3475
I279
sg2
(g3
(S'S6'
I0
I1
tRp3476
(I3
S'|'
NNNI6
I1
I0
tbS'couple'
tRp3477
I1588
sg2
(g3
(S'S7'
I0
I1
tRp3478
(I3
S'|'
NNNI7
I1
I0
tbS'fearful'
tRp3479
I1589
sg2
(g3
(S'S10'
I0
I1
tRp3480
(I3
S'|'
NNNI10
I1
I0
tbS'appearance'
tRp3481
I1591
sg2
(g3
(S'S7'
I0
I1
tRp3482
(I3
S'|'
NNNI7
I1
I0
tbS'examine'
tRp3483
I1842
sg2
(g3
(S'S4'
I0
I1
tRp3484
(I3
S'|'
NNNI4
I1
I0
tbS'will'
tRp3485
I1593
sg2
(g3
(S'S6'
I0
I1
tRp3486
(I3
S'|'
NNNI6
I1
I0
tbS'bhajan'
tRp3487
I583
sg2
(g3
(S'S6'
I0
I1
tRp3488
(I3
S'|'
NNNI6
I1
I0
tbS'supply'
tRp3489
I1604
sg2
(g3
(S'S5'
I0
I1
tRp3490
(I3
S'|'
NNNI5
I1
I0
tbS'group'
tRp3491
I1528
sg2
(g3
(S'S4'
I0
I1
tRp3492
(I3
S'|'
NNNI4
I1
I0
tbS'thus'
tRp3493
I1607
sg2
(g3
(S'S4'
I0
I1
tRp3494
(I3
S'|'
NNNI4
I1
I0
tbS'site'
tRp3495
I1608
sg2
(g3
(S'S13'
I0
I1
tRp3496
(I3
S'|'
NNNI13
I1
I0
tbS'encouragement'
tRp3497
I1609
sg2
(g3
(S'S6'
I0
I1
tRp3498
(I3
S'|'
NNNI6
I1
I0
tbS'helped'
tRp3499
I1610
sg2
(g3
(S'S7'
I0
I1
tRp3500
(I3
S'|'
NNNI7
I1
I0
tbS'partner'
tRp3501
I1614
sg2
(g3
(S'S9'
I0
I1
tRp3502
(I3
S'|'
NNNI9
I1
I0
tbS'inspector'
tRp3503
I1615
sg2
(g3
(S'S6'
I0
I1
tRp3504
(I3
S'|'
NNNI6
I1
I0
tbS'ransom'
tRp3505
I1618
sg2
(g3
(S'S7'
I0
I1
tRp3506
(I3
S'|'
NNNI7
I1
I0
tbS'capture'
tRp3507
I1619
sg2
(g3
(S'S14'
I0
I1
tRp3508
(I3
S'|'
NNNI14
I1
I0
tbS'administration'
tRp3509
I1625
sg2
(g3
(S'S5'
I0
I1
tRp3510
(I3
S'|'
NNNI5
I1
I0
tbS'cross'
tRp3511
I1626
sg2
(g3
(S'S6'
I0
I1
tRp3512
(I3
S'|'
NNNI6
I1
I0
tbS'member'
tRp3513
I1628
sg2
(g3
(S'S5'
I0
I1
tRp3514
(I3
S'|'
NNNI5
I1
I0
tbS'party'
tRp3515
I1631
sg2
(g3
(S'S4'
I0
I1
tRp3516
(I3
S'|'
NNNI4
I1
I0
tbS'gets'
tRp3517
I1632
sg2
(g3
(S'S9'
I0
I1
tRp3518
(I3
S'|'
NNNI9
I1
I0
tbS'difficult'
tRp3519
I288
sg2
(g3
(S'S7'
I0
I1
tRp3520
(I3
S'|'
NNNI7
I1
I0
tbS'injured'
tRp3521
I1634
sg2
(g3
(S'S5'
I0
I1
tRp3522
(I3
S'|'
NNNI5
I1
I0
tbS'slave'
tRp3523
I1635
sg2
(g3
(S'S4'
I0
I1
tRp3524
(I3
S'|'
NNNI4
I1
I0
tbS'upon'
tRp3525
I325
sg2
(g3
(S'S7'
I0
I1
tRp3526
(I3
S'|'
NNNI7
I1
I0
tbS'student'
tRp3527
I1643
sg2
(g3
(S'S5'
I0
I1
tRp3528
(I3
S'|'
NNNI5
I1
I0
tbS'spree'
tRp3529
I1644
sg2
(g3
(S'S8'
I0
I1
tRp3530
(I3
S'|'
NNNI8
I1
I0
tbS'identity'
tRp3531
I374
sg2
(g3
(S'S3'
I0
I1
tRp3532
(I3
S'|'
NNNI3
I1
I0
tbS'off'
tRp3533
I1650
sg2
(g3
(S'S6'
I0
I1
tRp3534
(I3
S'|'
NNNI6
I1
I0
tbS'center'
tRp3535
I1651
sg2
(g3
(S'S8'
I0
I1
tRp3536
(I3
S'|'
NNNI8
I1
I0
tbS'realises'
tRp3537
I1562
sg2
(g3
(S'S5'
I0
I1
tRp3538
(I3
S'|'
NNNI5
I1
I0
tbS'drags'
tRp3539
I1653
sg2
(g3
(S'S4'
I0
I1
tRp3540
(I3
S'|'
NNNI4
I1
I0
tbS'well'
tRp3541
I1655
sg2
(g3
(S'S8'
I0
I1
tRp3542
(I3
S'|'
NNNI8
I1
I0
tbS'fighting'
tRp3543
I1656
sg2
(g3
(S'S4'
I0
I1
tRp3544
(I3
S'|'
NNNI4
I1
I0
tbS'sets'
tRp3545
I1659
sg2
(g3
(S'S8'
I0
I1
tRp3546
(I3
S'|'
NNNI8
I1
I0
tbS'position'
tRp3547
I1660
sg2
(g3
(S'S7'
I0
I1
tRp3548
(I3
S'|'
NNNI7
I1
I0
tbS'sensing'
tRp3549
I456
sg2
(g3
(S'S7'
I0
I1
tRp3550
(I3
S'|'
NNNI7
I1
I0
tbS'moments'
tRp3551
I1190
sg2
(g3
(S'S13'
I0
I1
tRp3552
(I3
S'|'
NNNI13
I1
I0
tbS'sister-in-law'
tRp3553
I1669
sg2
(g3
(S'S4'
I0
I1
tRp3554
(I3
S'|'
NNNI4
I1
I0
tbS'half'
tRp3555
I1385
sg2
(g3
(S'S8'
I0
I1
tRp3556
(I3
S'|'
NNNI8
I1
I0
tbS'smuggled'
tRp3557
I1671
sg2
(g3
(S'S7'
I0
I1
tRp3558
(I3
S'|'
NNNI7
I1
I0
tbS'distant'
tRp3559
I1674
sg2
(g3
(S'S8'
I0
I1
tRp3560
(I3
S'|'
NNNI8
I1
I0
tbS'predicts'
tRp3561
I1675
sg2
(g3
(S'S9'
I0
I1
tRp3562
(I3
S'|'
NNNI9
I1
I0
tbS'happiness'
tRp3563
I1677
sg2
(g3
(S'S11'
I0
I1
tRp3564
(I3
S'|'
NNNI11
I1
I0
tbS'watchtowers'
tRp3565
I1681
sg2
(g3
(S'S10'
I0
I1
tRp3566
(I3
S'|'
NNNI10
I1
I0
tbS'terrorized'
tRp3567
I1682
sg2
(g3
(S'S11'
I0
I1
tRp3568
(I3
S'|'
NNNI11
I1
I0
tbS'male-female'
tRp3569
I598
sg2
(g3
(S'S8'
I0
I1
tRp3570
(I3
S'|'
NNNI8
I1
I0
tbS'deposits'
tRp3571
I1684
sg2
(g3
(S'S3'
I0
I1
tRp3572
(I3
S'|'
NNNI3
I1
I0
tbS'day'
tRp3573
I1685
sg2
(g3
(S'S6'
I0
I1
tRp3574
(I3
S'|'
NNNI6
I1
I0
tbS'arrest'
tRp3575
I1686
sg2
(g3
(S'S8'
I0
I1
tRp3576
(I3
S'|'
NNNI8
I1
I0
tbS'adoption'
tRp3577
I1687
sg2
(g3
(S'S5'
I0
I1
tRp3578
(I3
S'|'
NNNI5
I1
I0
tbS'uttar'
tRp3579
I1694
sg2
(g3
(S'S4'
I0
I1
tRp3580
(I3
S'|'
NNNI4
I1
I0
tbS'know'
tRp3581
I1696
sg2
(g3
(S'S6'
I0
I1
tRp3582
(I3
S'|'
NNNI6
I1
I0
tbS'burden'
tRp3583
I1697
sg2
(g3
(S'S11'
I0
I1
tRp3584
(I3
S'|'
NNNI11
I1
I0
tbS'immediately'
tRp3585
I1011
sg2
(g3
(S'S7'
I0
I1
tRp3586
(I3
S'|'
NNNI7
I1
I0
tbS'crushes'
tRp3587
I1699
sg2
(g3
(S'S7'
I0
I1
tRp3588
(I3
S'|'
NNNI7
I1
I0
tbS'devises'
tRp3589
I1701
sg2
(g3
(S'S4'
I0
I1
tRp3590
(I3
S'|'
NNNI4
I1
I0
tbS'name'
tRp3591
I1702
sg2
(g3
(S'S4'
I0
I1
tRp3592
(I3
S'|'
NNNI4
I1
I0
tbS'loss'
tRp3593
I1703
sg2
(g3
(S'S4'
I0
I1
tRp3594
(I3
S'|'
NNNI4
I1
I0
tbS'like'
tRp3595
I1705
sg2
(g3
(S'S7'
I0
I1
tRp3596
(I3
S'|'
NNNI7
I1
I0
tbS'success'
tRp3597
I1706
sg2
(g3
(S'S8'
I0
I1
tRp3598
(I3
S'|'
NNNI8
I1
I0
tbS'admitted'
tRp3599
I800
sg2
(g3
(S'S5'
I0
I1
tRp3600
(I3
S'|'
NNNI5
I1
I0
tbS'loses'
tRp3601
I1710
sg2
(g3
(S'S9'
I0
I1
tRp3602
(I3
S'|'
NNNI9
I1
I0
tbS'gangsters'
tRp3603
I1711
sg2
(g3
(S'S7'
I0
I1
tRp3604
(I3
S'|'
NNNI7
I1
I0
tbS'rituals'
tRp3605
I1712
sg2
(g3
(S'S4'
I0
I1
tRp3606
(I3
S'|'
NNNI4
I1
I0
tbS'lose'
tRp3607
I1714
sg2
(g3
(S'S6'
I0
I1
tRp3608
(I3
S'|'
NNNI6
I1
I0
tbS'become'
tRp3609
I1715
sg2
(g3
(S'S5'
I0
I1
tRp3610
(I3
S'|'
NNNI5
I1
I0
tbS'works'
tRp3611
I1716
sg2
(g3
(S'S7'
I0
I1
tRp3612
(I3
S'|'
NNNI7
I1
I0
tbS'because'
tRp3613
I1719
sg2
(g3
(S'S8'
I0
I1
tRp3614
(I3
S'|'
NNNI8
I1
I0
tbS'smoothly'
tRp3615
I1253
sg2
(g3
(S'S7'
I0
I1
tRp3616
(I3
S'|'
NNNI7
I1
I0
tbS'footage'
tRp3617
I1722
sg2
(g3
(S'S6'
I0
I1
tRp3618
(I3
S'|'
NNNI6
I1
I0
tbS'church'
tRp3619
I1723
sg2
(g3
(S'S9'
I0
I1
tRp3620
(I3
S'|'
NNNI9
I1
I0
tbS'searching'
tRp3621
I529
sg2
(g3
(S'S5'
I0
I1
tRp3622
(I3
S'|'
NNNI5
I1
I0
tbS'alive'
tRp3623
I1725
sg2
(g3
(S'S8'
I0
I1
tRp3624
(I3
S'|'
NNNI8
I1
I0
tbS'immortal'
tRp3625
I1726
sg2
(g3
(S'S6'
I0
I1
tRp3626
(I3
S'|'
NNNI6
I1
I0
tbS'motive'
tRp3627
I892
sg2
(g3
(S'S6'
I0
I1
tRp3628
(I3
S'|'
NNNI6
I1
I0
tbS'convey'
tRp3629
I1728
sg2
(g3
(S'S14'
I0
I1
tRp3630
(I3
S'|'
NNNI14
I1
I0
tbS'recommendation'
tRp3631
I1729
sg2
(g3
(S'S4'
I0
I1
tRp3632
(I3
S'|'
NNNI4
I1
I0
tbS'home'
tRp3633
I1730
sg2
(g3
(S'S6'
I0
I1
tRp3634
(I3
S'|'
NNNI6
I1
I0
tbS'empire'
tRp3635
I1731
sg2
(g3
(S'S6'
I0
I1
tRp3636
(I3
S'|'
NNNI6
I1
I0
tbS'scares'
tRp3637
I1733
sg2
(g3
(S'S7'
I0
I1
tRp3638
(I3
S'|'
NNNI7
I1
I0
tbS'happens'
tRp3639
I1168
sg2
(g3
(S'S8'
I0
I1
tRp3640
(I3
S'|'
NNNI8
I1
I0
tbS'forgives'
tRp3641
I952
sg2
(g3
(S'S4'
I0
I1
tRp3642
(I3
S'|'
NNNI4
I1
I0
tbS'does'
tRp3643
I1743
sg2
(g3
(S'S6'
I0
I1
tRp3644
(I3
S'|'
NNNI6
I1
I0
tbS'chains'
tRp3645
I1746
sg2
(g3
(S'S6'
I0
I1
tRp3646
(I3
S'|'
NNNI6
I1
I0
tbS'leader'
tRp3647
I1747
sg2
(g3
(S'S1'
I0
I1
tRp3648
(I3
S'|'
NNNI1
I1
I0
tbS'?'
tRp3649
I1748
sg2
(g3
(S'S8'
I0
I1
tRp3650
(I3
S'|'
NNNI8
I1
I0
tbS'handedly'
tRp3651
I1755
sg2
(g3
(S'S8'
I0
I1
tRp3652
(I3
S'|'
NNNI8
I1
I0
tbS'murdered'
tRp3653
I1756
sg2
(g3
(S'S8'
I0
I1
tRp3654
(I3
S'|'
NNNI8
I1
I0
tbS'although'
tRp3655
I1757
sg2
(g3
(S'S5'
I0
I1
tRp3656
(I3
S'|'
NNNI5
I1
I0
tbS'about'
tRp3657
I1120
sg2
(g3
(S'S9'
I0
I1
tRp3658
(I3
S'|'
NNNI9
I1
I0
tbS'lifestyle'
tRp3659
I1125
sg2
(g3
(S'S4'
I0
I1
tRp3660
(I3
S'|'
NNNI4
I1
I0
tbS'puts'
tRp3661
I1762
sg2
(g3
(S'S7'
I0
I1
tRp3662
(I3
S'|'
NNNI7
I1
I0
tbS'getting'
tRp3663
I1764
sg2
(g3
(S'S7'
I0
I1
tRp3664
(I3
S'|'
NNNI7
I1
I0
tbS'freedom'
tRp3665
I1141
sg2
(g3
(S'S9'
I0
I1
tRp3666
(I3
S'|'
NNNI9
I1
I0
tbS'blessings'
tRp3667
I1163
sg2
(g3
(S'S7'
I0
I1
tRp3668
(I3
S'|'
NNNI7
I1
I0
tbS'equally'
tRp3669
I965
sg2
(g3
(S'S3'
I0
I1
tRp3670
(I3
S'|'
NNNI3
I1
I0
tbS'own'
tRp3671
I1211
sg2
(g3
(S'S7'
I0
I1
tRp3672
(I3
S'|'
NNNI7
I1
I0
tbS'earthly'
tRp3673
I1872
sg2
(g3
(S'S5'
I0
I1
tRp3674
(I3
S'|'
NNNI5
I1
I0
tbS'keeps'
tRp3675
I1782
sg2
(g3
(S'S7'
I0
I1
tRp3676
(I3
S'|'
NNNI7
I1
I0
tbS'promise'
tRp3677
I1786
sg2
(g3
(S'S6'
I0
I1
tRp3678
(I3
S'|'
NNNI6
I1
I0
tbS'female'
tRp3679
I1787
sg2
(g3
(S'S7'
I0
I1
tRp3680
(I3
S'|'
NNNI7
I1
I0
tbS'quickly'
tRp3681
I1791
sg2
(g3
(S'S6'
I0
I1
tRp3682
(I3
S'|'
NNNI6
I1
I0
tbS'bombay'
tRp3683
I1792
sg2
(g3
(S'S6'
I0
I1
tRp3684
(I3
S'|'
NNNI6
I1
I0
tbS'rivals'
tRp3685
I1794
sg2
(g3
(S'S6'
I0
I1
tRp3686
(I3
S'|'
NNNI6
I1
I0
tbS'brides'
tRp3687
I705
sg2
(g3
(S'S6'
I0
I1
tRp3688
(I3
S'|'
NNNI6
I1
I0
tbS'rushes'
tRp3689
I1798
sg2
(g3
(S'S6'
I0
I1
tRp3690
(I3
S'|'
NNNI6
I1
I0
tbS'spread'
tRp3691
I335
sg2
(g3
(S'S7'
I0
I1
tRp3692
(I3
S'|'
NNNI7
I1
I0
tbS'resists'
tRp3693
I1357
sg2
(g3
(S'S15'
I0
I1
tRp3694
(I3
S'|'
NNNI15
I1
I0
tbS'daughter-in-law'
tRp3695
I1803
sg2
(g3
(S'S3'
I0
I1
tRp3696
(I3
S'|'
NNNI3
I1
I0
tbS'but'
tRp3697
I1422
sg2
(g3
(S'S8'
I0
I1
tRp3698
(I3
S'|'
NNNI8
I1
I0
tbS'delivery'
tRp3699
I1808
sg2
(g3
(S'S7'
I0
I1
tRp3700
(I3
S'|'
NNNI7
I1
I0
tbS'reminds'
tRp3701
I1809
sg2
(g3
(S'S4'
I0
I1
tRp3702
(I3
S'|'
NNNI4
I1
I0
tbS'gain'
tRp3703
I1810
sg2
(g3
(S'S2'
I0
I1
tRp3704
(I3
S'|'
NNNI2
I1
I0
tbS'he'
tRp3705
I1456
sg2
(g3
(S'S4'
I0
I1
tRp3706
(I3
S'|'
NNNI4
I1
I0
tbS'made'
tRp3707
I1818
sg2
(g3
(S'S6'
I0
I1
tRp3708
(I3
S'|'
NNNI6
I1
I0
tbS'places'
tRp3709
I1821
sg2
(g3
(S'S7'
I0
I1
tRp3710
(I3
S'|'
NNNI7
I1
I0
tbS'whether'
tRp3711
I1823
sg2
(g3
(S'S4'
I0
I1
tRp3712
(I3
S'|'
NNNI4
I1
I0
tbS'wish'
tRp3713
I1824
sg2
(g3
(S'S6'
I0
I1
tRp3714
(I3
S'|'
NNNI6
I1
I0
tbS'record'
tRp3715
I338
sg2
(g3
(S'S5'
I0
I1
tRp3716
(I3
S'|'
NNNI5
I1
I0
tbS'cruel'
tRp3717
I1828
sg2
(g3
(S'S8'
I0
I1
tRp3718
(I3
S'|'
NNNI8
I1
I0
tbS'convince'
tRp3719
I1829
sg2
(g3
(S'S12'
I0
I1
tRp3720
(I3
S'|'
NNNI12
I1
I0
tbS'distribution'
tRp3721
I1831
sg2
(g3
(S'S7'
I0
I1
tRp3722
(I3
S'|'
NNNI7
I1
I0
tbS'bearing'
tRp3723
I1834
sg2
(g3
(S'S6'
I0
I1
tRp3724
(I3
S'|'
NNNI6
I1
I0
tbS'deaths'
tRp3725
I1836
sg2
(g3
(S'S8'
I0
I1
tRp3726
(I3
S'|'
NNNI8
I1
I0
tbS'sexually'
tRp3727
I1838
sg2
(g3
(S'S5'
I0
I1
tRp3728
(I3
S'|'
NNNI5
I1
I0
tbS'twist'
tRp3729
I1841
sg2
(g3
(S'S5'
I0
I1
tRp3730
(I3
S'|'
NNNI5
I1
I0
tbS'beats'
tRp3731
I611
sg2
(g3
(S'S7'
I0
I1
tRp3732
(I3
S'|'
NNNI7
I1
I0
tbS'romance'
tRp3733
I1843
sg2
(g3
(S'S7'
I0
I1
tRp3734
(I3
S'|'
NNNI7
I1
I0
tbS'periods'
tRp3735
I1603
sg2
(g3
(S'S9'
I0
I1
tRp3736
(I3
S'|'
NNNI9
I1
I0
tbS'education'
tRp3737
I1847
sg2
(g3
(S'S6'
I0
I1
tRp3738
(I3
S'|'
NNNI6
I1
I0
tbS'happen'
tRp3739
I1848
sg2
(g3
(S'S8'
I0
I1
tRp3740
(I3
S'|'
NNNI8
I1
I0
tbS'planting'
tRp3741
I1636
sg2
(g3
(S'S8'
I0
I1
tRp3742
(I3
S'|'
NNNI8
I1
I0
tbS'renowned'
tRp3743
I1851
sg2
(g3
(S'S6'
I0
I1
tRp3744
(I3
S'|'
NNNI6
I1
I0
tbS'rumors'
tRp3745
I1852
sg2
(g3
(S'S7'
I0
I1
tRp3746
(I3
S'|'
NNNI7
I1
I0
tbS'dressed'
tRp3747
I1854
sg2
(g3
(S'S5'
I0
I1
tRp3748
(I3
S'|'
NNNI5
I1
I0
tbS'jeeps'
tRp3749
I1857
sg2
(g3
(S'S5'
I0
I1
tRp3750
(I3
S'|'
NNNI5
I1
I0
tbS'other'
tRp3751
I1858
sg2
(g3
(S'S9'
I0
I1
tRp3752
(I3
S'|'
NNNI9
I1
I0
tbS'conspires'
tRp3753
I1859
sg2
(g3
(S'S8'
I0
I1
tRp3754
(I3
S'|'
NNNI8
I1
I0
tbS'convicts'
tRp3755
I1862
sg2
(g3
(S'S6'
I0
I1
tRp3756
(I3
S'|'
NNNI6
I1
I0
tbS'repeat'
tRp3757
I1864
sg2
(g3
(S'S8'
I0
I1
tRp3758
(I3
S'|'
NNNI8
I1
I0
tbS'secretly'
tRp3759
I1866
sg2
(g3
(S'S4'
I0
I1
tRp3760
(I3
S'|'
NNNI4
I1
I0
tbS'stay'
tRp3761
I1868
sg2
(g3
(S'S6'
I0
I1
tRp3762
(I3
S'|'
NNNI6
I1
I0
tbS'chance'
tRp3763
I1869
sg2
(g3
(S'S12'
I0
I1
tRp3764
(I3
S'|'
NNNI12
I1
I0
tbS'additionally'
tRp3765
I1780
sg2
(g3
(S'S6'
I0
I1
tRp3766
(I3
S'|'
NNNI6
I1
I0
tbS'pacify'
tRp3767
I1785
sg2
(g3
(S'S7'
I0
I1
tRp3768
(I3
S'|'
NNNI7
I1
I0
tbS'friends'
tRp3769
I1874
sg2
(g3
(S'S11'
I0
I1
tRp3770
(I3
S'|'
NNNI11
I1
I0
tbS'influential'
tRp3771
I1594
sg2
(g3
(S'S5'
I0
I1
tRp3772
(I3
S'|'
NNNI5
I1
I0
tbS'using'
tRp3773
I1877
sg2
(g3
(S'S4'
I0
I1
tRp3774
(I3
S'|'
NNNI4
I1
I0
tbS'rule'
tRp3775
I1880
sg2
(g3
(S'S16'
I0
I1
tRp3776
(I3
S'|'
NNNI16
I1
I0
tbS'daughters-in-law'
tRp3777
I1882
s.